(dp1
S'output'
p2
S''
sS'layer'
p3
S'/home/umum/web2py/applications/simpel_mail_sistem/views/default/index.html'
p4
sS'code'
p5
S'response.write(\'<!DOCTYPE html>\\n<html lang="\', escape=False)\nresponse.write(T.accepted_language or \'en\')\nresponse.write(\'" class="no-js"><!-- no-js need it for modernzr -->\\n  <head>\\n    \\n    <meta charset="utf-8" />        \\n    <!-- www.phpied.com/conditional-comments-block-downloads/ -->\\n    <!--[if IE]><![endif]-->    \\n    <!-- Always force latest IE rendering engine \\n     (even in intranet) & Chrome Frame \\n     Remove this if you use the .htaccess -->\\n    <meta http-equiv="X-UA-Compatible" content="IE=edge,chrome=1">\\n    \\n    <title>\', escape=False)\nresponse.write(response.title or request.application)\nresponse.write(\'</title>\\n    \\n    <!-- http://dev.w3.org/html5/markup/meta.name.html -->\\n    <meta name="application-name" content="\', escape=False)\nresponse.write(request.application)\nresponse.write(\'" /> \\n    \\n    <!-- Speaking of Google, don\\\'t forget to set your site up: \\n     http://google.com/webmasters -->\\n    <meta name="google-site-verification" content="" />\\n    \\n    <!--  Mobile Viewport Fix\\n      j.mp/mobileviewport & davidbcalhoun.com/2010/viewport-metatag \\n      device-width: Occupy full width of the screen in its current orientation\\n      initial-scale = 1.0 retains dimensions instead of zooming out if page height > device height\\n      maximum-scale = 1.0 retains dimensions instead of zooming in if page width < device width\\n      -->\\n    <meta name="viewport" content="width=device-width, initial-scale=1.0, maximum-scale=1.0">\\n    \\n    <!-- Place favicon.ico and apple-touch-icon.png in the root of your domain and delete these references -->\\n    <link rel="shortcut icon" href="\', escape=False)\nresponse.write(URL(\'static\',\'favicon.ico\'))\nresponse.write(\'" type="image/x-icon">\\n    <link rel="apple-touch-icon" href="\', escape=False)\nresponse.write(URL(\'static\',\'favicon.png\'))\nresponse.write(\'">\\n\\n    <!-- For the less-enabled mobile browsers like Opera Mini -->\\n    <link rel="stylesheet" media="handheld" href="\', escape=False)\nresponse.write(URL(\'static\',\'css/handheld.css\'))\nresponse.write(\'">\\n    \\n    <!-- All JavaScript at the bottom, except for Modernizr which enables HTML5 elements & feature detects -->\\n    <script src="\', escape=False)\nresponse.write(URL(\'static\',\'js/modernizr-1.7.min.js\'))\nresponse.write(\'"></script>\\n    \\n    \', escape=False)\n#------  require CSS and JS files for this page (read info in base.css) ------\nresponse.write(\'\\n    \', escape=False)\nresponse.files.append(URL(\'static\',\'css/base.css\'))\nresponse.write(\'\\n    \', escape=False)\nresponse.files.append(URL(\'static\',\'css/superfish.css\'))\nresponse.write(\'\\n    \', escape=False)\nresponse.files.append(URL(\'static\',\'js/superfish.js\'))\nresponse.write(\'\\n    \', escape=False)\n#------ include web2py specific js code (jquery, calendar, form stuff) ------\nresponse.write(\'\\n    \', escape=False)\nresponse.files.insert(0,URL(\'static\',\'js/jquery.js\'))\nresponse.files.insert(1,URL(\'static\',\'css/calendar.css\'))\nresponse.files.insert(2,URL(\'static\',\'js/calendar.js\'))\nfor _item in response.meta or []:\n    response.write(\'\\n     <meta name="\', escape=False)\n    response.write(_item)\n    response.write(\'" content="\', escape=False)\n    response.write(response.meta[_item])\n    response.write(\'" />\', escape=False)\n    pass\nfor _k,_file in enumerate(response.files or []):\n    if _file in response.files[:_k]:\n        continue\n    _file0=_file.lower().split(\'?\')[0]\n    if _file0.endswith(\'.css\'):\n        response.write(\'\\n     <link href="\', escape=False)\n        response.write(_file)\n        response.write(\'" rel="stylesheet" type="text/css" />\', escape=False)\n    elif _file0.endswith(\'.js\'):\n        response.write(\'\\n     <script src="\', escape=False)\n        response.write(_file)\n        response.write(\'" type="text/javascript"></script>\', escape=False)\n        pass\n    pass\nresponse.write(\'\\n    <script type="text/javascript"><!--\\n    // These variables are used by the web2py_ajax_init function in web2py_ajax.js (which is loaded below).\\n    var w2p_ajax_confirm_message = "\', escape=False)\nresponse.write(T(\'Are you sure you want to delete this object?\'))\nresponse.write(\'";\\n    var w2p_ajax_date_format = "\', escape=False)\nresponse.write(T(\'%Y-%m-%d\'))\nresponse.write(\'";\\n    var w2p_ajax_datetime_format = "\', escape=False)\nresponse.write(T(\'%Y-%m-%d %H:%M:%S\'))\nresponse.write(\'";\\n    //--></script>\\n    <script src="\', escape=False)\nresponse.write(URL(\'static\',\'js/web2py_ajax.js\'))\nresponse.write(\'" type="text/javascript"></script>\\n\', escape=False)\nresponse.write(\'\\n\\n    \', escape=False)\n#using sidebars need to know what sidebar you want to use\n#prior of using it, because of static width size of content, you can use\n#left_sidebar, right_sidebar, both or none (False left and right)\nleft_sidebar_enabled = globals().get(\'left_sidebar_enabled\',False)\nright_sidebar_enabled = globals().get(\'right_sidebar_enabled\',False)\nif left_sidebar_enabled and right_sidebar_enabled: width_content=\'63%\'\nelif left_sidebar_enabled != right_sidebar_enabled: width_content=\'740px\'\nelse: width_content=\'100%\'\nif left_sidebar_enabled: left_sidebar_style = \'style="display: block;"\'\nelse: left_sidebar_style = \'style="display: none;"\'\nif right_sidebar_enabled: right_sidebar_style = \'style="display: block;"\'\nelse: right_sidebar_style = \'style="display: none;"\'\nstyle_content = \'style="width: %s"\' % width_content\nresponse.write(\'\\n  </head>\\n  \\n  <!-- paulirish.com/2008/conditional-stylesheets-vs-css-hacks-answer-neither/ -->  \\n  <!--[if lt IE 7 ]> <body class="ie6"> <![endif]-->\\n  <!--[if IE 7 ]>    <body class="ie7"> <![endif]-->\\n  <!--[if IE 8 ]>    <body class="ie8"> <![endif]-->\\n  <!--[if IE 9 ]>    <body class="ie9"> <![endif]-->\\n  <!--[if (gt IE 9)|!(IE)]><!--> <body> <!--<![endif]-->\\n    \\n    <div class="flash">\', escape=False)\nresponse.write(response.flash or \'\')\nresponse.write(\'</div> <!-- notification div -->\\n    \\n    <div id="container">                        \\n      \\n      <div id="wrapper">        \\n    \\n    <div id="header"> <!-- header and login nav -->\\n      \', escape=False)\nresponse.write(\' <!-- this is default header -->\\n      \', escape=False)\ntry:\n    response.write(auth.navbar(action=URL(\'default\',\'user\')))\nexcept:pass\nresponse.write(\'               \\n      <h1><span id="appname">\', escape=False)\nresponse.write(request.title.capitalize())\nresponse.write(\'</span> - App</h1>\\n      <div style="clear: both;"></div><!-- Clear the divs -->\\n      \', escape=False)\nresponse.write(\'                                     \\n    </div><!-- header  -->\\n    \\n    <div id="statusbar"><!-- statusbar is menu zone -->\\n      \', escape=False)\nresponse.write(\' <!-- this is default statusbar -->\\n      \', escape=False)\n#------ superfish menu ------\nresponse.write(\'\\n      \', escape=False)\nresponse.write(MENU(response.menu,_class=\'sf-menu\'))\nresponse.write(\'\\n      <script type="text/javascript">\\n        jQuery(document).ready(function(){\\n        jQuery(\\\'ul.sf-menu\\\').superfish();});\\n      </script>\\n      <div style="clear: both;"></div><!-- Clear the divs -->   \\n      \', escape=False)\nresponse.write(\'               \\n    </div><!-- statusbar -->\\n    \\n    <div id="page"> <!-- Here my central body -->     \\n\\n      \', escape=False)\nif left_sidebar_enabled:\n    response.write(\'\\n          <div id="left_sidebar" \', escape=False)\n    response.write(XML(left_sidebar_style))\n    response.write(\' >\\n            <div style="padding: 4px;">\\n          \', escape=False)\n    response.write(\'Content Left Sidebar\', escape=False)\n    response.write(\'       \\n            </div>\\n          </div><!-- left_sidebar -->\\n      \', escape=False)\n    pass\nresponse.write(\'\\n\\n      <!-- content -->\\n      <div id="content" \', escape=False)\nresponse.write(XML(style_content))\nresponse.write(\' >\\n        \', escape=False)\nresponse.write(\'\\n\\n<hr />\\n<h2>\', escape=False)\nresponse.write(T("Simpel Mail Sistem"))\nresponse.write(\'</h2>\\n\', escape=False)\nresponse.write(auth.user.username)\nresponse.write(\'\\n<ul>\\n  <li>\', escape=False)\nresponse.write(T(\'This is simpel mail system written on web2py web-based python framework\'))\nresponse.write(\'</li>\\n  <li>\', escape=False)\nresponse.write(T(\'Written by blackshirt@fastmail.fm\'))\nresponse.write(\'</li>\\n  <li>\', escape=False)\nresponse.write(T(\'This code licensed under GPLv2.0, and you can modify this application and adapt it to your needs\'))\nresponse.write(\'</li>\\n</ul>\\n\', escape=False)\nresponse.write(\' \\n      </div>\\n      <!-- content -->\\n\\n      \', escape=False)\nif right_sidebar_enabled:\n    response.write(\'\\n          <div id="right_sidebar" \', escape=False)\n    response.write(XML(right_sidebar_style))\n    response.write(\' >\\n            <div style="padding: 4px;">\\n              \', escape=False)\n    response.write(\'Content Right Sidebar\', escape=False)\n    response.write(\'\\n            </div>\\n      </div><!-- right_sidebar -->\\n          \', escape=False)\n    pass\nresponse.write(\'\\n\\n\\n      <div style="clear: both;"></div><!-- Clear the divs -->\\n      \\n    </div><!-- page -->                         \\n    \\n    <div id="footer">\\n      \', escape=False)\nresponse.write(\' <!-- this is default footer -->\\n      <a href="http://www.web2py.com/" style="float: left; padding-right: 6px;">\\n        <img src="\', escape=False)\nresponse.write(URL(\'static\',\'images/poweredby.png\'))\nresponse.write(\'"/>\\n      </a>\\n      \', escape=False)\nresponse.write(T(\'Copyright\'))\nresponse.write(\' &#169; 2010               \\n      <div style="clear: both;"></div><!-- Clear the divs -->\\n      \', escape=False)\nresponse.write(\'\\n\\n    </div><!-- footer -->           \\n      </div><!-- wrapper -->\\n    </div><!-- container -->        \\n    \\n    <!--[if lt IE 7 ]>\\n    <script src="\', escape=False)\nresponse.write(URL(\'static\',\'js/dd_belatedpng.js\'))\nresponse.write(\'"></script>\\n    <script> DD_belatedPNG.fix(\\\'img, .png_bg\\\'); //fix any <img> or .png_bg background-images </script>\\n    <![endif]-->\\n    \\n    <!-- asynchronous google analytics: mathiasbynens.be/notes/async-analytics-snippet \\n     change the UA-XXXXX-X to be your site\\\'s ID -->\\n    <!--   \\n       <script>\\n         var _gaq = [[\\\'_setAccount\\\', \\\'UA-XXXXX-X\\\'], [\\\'_trackPageview\\\']];\\n         (function(d, t) {\\n         var g = d.createElement(t),\\n         s = d.getElementsByTagName(t)[0];\\n         g.async = true;\\n         g.src = \\\'//www.google-analytics.com/ga.js\\\';\\n         s.parentNode.insertBefore(g, s);\\n         })(document, \\\'script\\\');\\n       </script>\\n       -->    \\n  </body>\\n</html>\\n\', escape=False)'
p6
sS'snapshot'
p7
(dp8
S'exception'
p9
(dp10
S'__hash__'
p11
S"<method-wrapper '__hash__' of exceptions.AttributeError object>"
p12
sS'__setattr__'
p13
S"<method-wrapper '__setattr__' of exceptions.AttributeError object>"
p14
sS'__reduce_ex__'
p15
S'<built-in method __reduce_ex__ of exceptions.AttributeError object>'
p16
sS'__getslice__'
p17
S"<method-wrapper '__getslice__' of exceptions.AttributeError object>"
p18
sS'__getitem__'
p19
S"<method-wrapper '__getitem__' of exceptions.AttributeError object>"
p20
sS'__setstate__'
p21
S'<built-in method __setstate__ of exceptions.AttributeError object>'
p22
sS'args'
p23
S'("\'NoneType\' object has no attribute \'username\'",)'
p24
sS'__reduce__'
p25
S'<built-in method __reduce__ of exceptions.AttributeError object>'
p26
sS'__str__'
p27
S"<method-wrapper '__str__' of exceptions.AttributeError object>"
p28
sS'__format__'
p29
S'<built-in method __format__ of exceptions.AttributeError object>'
p30
sS'__getattribute__'
p31
S"<method-wrapper '__getattribute__' of exceptions.AttributeError object>"
p32
sS'__class__'
p33
S"<type 'exceptions.AttributeError'>"
p34
sS'__unicode__'
p35
S'<built-in method __unicode__ of exceptions.AttributeError object>'
p36
sS'__delattr__'
p37
S"<method-wrapper '__delattr__' of exceptions.AttributeError object>"
p38
sS'__subclasshook__'
p39
S'<built-in method __subclasshook__ of type object>'
p40
sS'__repr__'
p41
S"<method-wrapper '__repr__' of exceptions.AttributeError object>"
p42
sS'__dict__'
p43
S'{}'
p44
sS'__sizeof__'
p45
S'<built-in method __sizeof__ of exceptions.AttributeError object>'
p46
sS'__doc__'
p47
S"'Attribute not found.'"
p48
sS'__init__'
p49
S"<method-wrapper '__init__' of exceptions.AttributeError object>"
p50
sS'__new__'
p51
S'<built-in method __new__ of type object>'
p52
ssS'evalue'
p53
S"'NoneType' object has no attribute 'username'"
p54
sS'request'
p55
ccopy_reg
_reconstructor
p56
(cgluon.html
BEAUTIFY
p57
c__builtin__
object
p58
NtRp59
(dp60
S'attributes'
p61
(dp62
sS'components'
p63
(lp64
g56
(cgluon.html
TABLE
p65
g58
NtRp66
(dp67
g61
(dp68
S'level'
p69
I5
ssS'parent'
p70
Nsg63
(lp71
g56
(cgluon.html
TR
p72
g58
NtRp73
(dp74
g61
(dp75
sg70
g66
sg63
(lp76
g56
(cgluon.html
TD
p77
g58
NtRp78
(dp79
g61
(dp80
S'_style'
p81
S'font-weight:bold;'
p82
ssg70
g73
sg63
(lp83
S'ajax'
p84
asbag56
(g77
g58
NtRp85
(dp86
g61
(dp87
S'_valign'
p88
S'top'
p89
ssg70
g73
sg63
(lp90
S':'
asbag56
(g77
g58
NtRp91
(dp92
g61
(dp93
sg70
g73
sg63
(lp94
g56
(g57
g58
NtRp95
(dp96
g61
(dp97
g69
I5
ssg70
g91
sg63
(lp98
S'False'
p99
asbasbasbag56
(g72
g58
NtRp100
(dp101
g61
(dp102
sg70
g66
sg63
(lp103
g56
(g77
g58
NtRp104
(dp105
g61
(dp106
g81
g82
ssg70
g100
sg63
(lp107
S'application'
p108
asbag56
(g77
g58
NtRp109
(dp110
g61
(dp111
g88
g89
ssg70
g100
sg63
(lp112
S':'
asbag56
(g77
g58
NtRp113
(dp114
g61
(dp115
sg70
g100
sg63
(lp116
g56
(g57
g58
NtRp117
(dp118
g61
(dp119
g69
I5
ssg70
g113
sg63
(lp120
S'simpel_mail_sistem'
p121
asbasbasbag56
(g72
g58
NtRp122
(dp123
g61
(dp124
sg70
g66
sg63
(lp125
g56
(g77
g58
NtRp126
(dp127
g61
(dp128
g81
g82
ssg70
g122
sg63
(lp129
g23
asbag56
(g77
g58
NtRp130
(dp131
g61
(dp132
g88
g89
ssg70
g122
sg63
(lp133
S':'
asbag56
(g77
g58
NtRp134
(dp135
g61
(dp136
sg70
g122
sg63
(lp137
g56
(g57
g58
NtRp138
(dp139
g61
(dp140
g69
I5
ssg70
g134
sg63
(lp141
g56
(g65
g58
NtRp142
(dp143
g61
(dp144
g69
I4
ssg70
Nsg63
(lp145
sbasbasbasbag56
(g72
g58
NtRp146
(dp147
g61
(dp148
sg70
g66
sg63
(lp149
g56
(g77
g58
NtRp150
(dp151
g61
(dp152
g81
g82
ssg70
g146
sg63
(lp153
S'body'
p154
asbag56
(g77
g58
NtRp155
(dp156
g61
(dp157
g88
g89
ssg70
g146
sg63
(lp158
S':'
asbag56
(g77
g58
NtRp159
(dp160
g61
(dp161
sg70
g146
sg63
(lp162
g56
(g57
g58
NtRp163
(dp164
g61
(dp165
g69
I5
ssg70
g159
sg63
(lp166
S'<cStringIO.StringO object at 0x3037340>'
p167
asbasbasbag56
(g72
g58
NtRp168
(dp169
g61
(dp170
sg70
g66
sg63
(lp171
g56
(g77
g58
NtRp172
(dp173
g61
(dp174
g81
g82
ssg70
g168
sg63
(lp175
S'client'
p176
asbag56
(g77
g58
NtRp177
(dp178
g61
(dp179
g88
g89
ssg70
g168
sg63
(lp180
S':'
asbag56
(g77
g58
NtRp181
(dp182
g61
(dp183
sg70
g168
sg63
(lp184
g56
(g57
g58
NtRp185
(dp186
g61
(dp187
g69
I5
ssg70
g181
sg63
(lp188
S'127.0.0.1'
p189
asbasbasbag56
(g72
g58
NtRp190
(dp191
g61
(dp192
sg70
g66
sg63
(lp193
g56
(g77
g58
NtRp194
(dp195
g61
(dp196
g81
g82
ssg70
g190
sg63
(lp197
S'controller'
p198
asbag56
(g77
g58
NtRp199
(dp200
g61
(dp201
g88
g89
ssg70
g190
sg63
(lp202
S':'
asbag56
(g77
g58
NtRp203
(dp204
g61
(dp205
sg70
g190
sg63
(lp206
g56
(g57
g58
NtRp207
(dp208
g61
(dp209
g69
I5
ssg70
g203
sg63
(lp210
S'default'
p211
asbasbasbag56
(g72
g58
NtRp212
(dp213
g61
(dp214
sg70
g66
sg63
(lp215
g56
(g77
g58
NtRp216
(dp217
g61
(dp218
g81
g82
ssg70
g212
sg63
(lp219
S'cookies'
p220
asbag56
(g77
g58
NtRp221
(dp222
g61
(dp223
g88
g89
ssg70
g212
sg63
(lp224
S':'
asbag56
(g77
g58
NtRp225
(dp226
g61
(dp227
sg70
g212
sg63
(lp228
g56
(g57
g58
NtRp229
(dp230
g61
(dp231
g69
I5
ssg70
g225
sg63
(lp232
g56
(g65
g58
NtRp233
(dp234
g61
(dp235
g69
I4
ssg70
Nsg63
(lp236
g56
(g72
g58
NtRp237
(dp238
g61
(dp239
sg70
g233
sg63
(lp240
g56
(g77
g58
NtRp241
(dp242
g61
(dp243
g81
g82
ssg70
g237
sg63
(lp244
S'csrftoken'
p245
asbag56
(g77
g58
NtRp246
(dp247
g61
(dp248
g88
g89
ssg70
g237
sg63
(lp249
S':'
asbag56
(g77
g58
NtRp250
(dp251
g61
(dp252
sg70
g237
sg63
(lp253
g56
(g57
g58
NtRp254
(dp255
g61
(dp256
g69
I4
ssg70
g250
sg63
(lp257
g56
(g65
g58
NtRp258
(dp259
g61
(dp260
g69
I3
ssg70
Nsg63
(lp261
g56
(g72
g58
NtRp262
(dp263
g61
(dp264
sg70
g258
sg63
(lp265
g56
(g77
g58
NtRp266
(dp267
g61
(dp268
g81
g82
ssg70
g262
sg63
(lp269
S'comment'
p270
asbag56
(g77
g58
NtRp271
(dp272
g61
(dp273
g88
g89
ssg70
g262
sg63
(lp274
S':'
asbag56
(g77
g58
NtRp275
(dp276
g61
(dp277
sg70
g262
sg63
(lp278
g56
(g57
g58
NtRp279
(dp280
g61
(dp281
g69
I3
ssg70
g275
sg63
(lp282
S''
asbasbasbag56
(g72
g58
NtRp283
(dp284
g61
(dp285
sg70
g258
sg63
(lp286
g56
(g77
g58
NtRp287
(dp288
g61
(dp289
g81
g82
ssg70
g283
sg63
(lp290
S'domain'
p291
asbag56
(g77
g58
NtRp292
(dp293
g61
(dp294
g88
g89
ssg70
g283
sg63
(lp295
S':'
asbag56
(g77
g58
NtRp296
(dp297
g61
(dp298
sg70
g283
sg63
(lp299
g56
(g57
g58
NtRp300
(dp301
g61
(dp302
g69
I3
ssg70
g296
sg63
(lp303
S''
asbasbasbag56
(g72
g58
NtRp304
(dp305
g61
(dp306
sg70
g258
sg63
(lp307
g56
(g77
g58
NtRp308
(dp309
g61
(dp310
g81
g82
ssg70
g304
sg63
(lp311
S'expires'
p312
asbag56
(g77
g58
NtRp313
(dp314
g61
(dp315
g88
g89
ssg70
g304
sg63
(lp316
S':'
asbag56
(g77
g58
NtRp317
(dp318
g61
(dp319
sg70
g304
sg63
(lp320
g56
(g57
g58
NtRp321
(dp322
g61
(dp323
g69
I3
ssg70
g317
sg63
(lp324
S''
asbasbasbag56
(g72
g58
NtRp325
(dp326
g61
(dp327
sg70
g258
sg63
(lp328
g56
(g77
g58
NtRp329
(dp330
g61
(dp331
g81
g82
ssg70
g325
sg63
(lp332
S'httponly'
p333
asbag56
(g77
g58
NtRp334
(dp335
g61
(dp336
g88
g89
ssg70
g325
sg63
(lp337
S':'
asbag56
(g77
g58
NtRp338
(dp339
g61
(dp340
sg70
g325
sg63
(lp341
g56
(g57
g58
NtRp342
(dp343
g61
(dp344
g69
I3
ssg70
g338
sg63
(lp345
S''
asbasbasbag56
(g72
g58
NtRp346
(dp347
g61
(dp348
sg70
g258
sg63
(lp349
g56
(g77
g58
NtRp350
(dp351
g61
(dp352
g81
g82
ssg70
g346
sg63
(lp353
S'max-age'
p354
asbag56
(g77
g58
NtRp355
(dp356
g61
(dp357
g88
g89
ssg70
g346
sg63
(lp358
S':'
asbag56
(g77
g58
NtRp359
(dp360
g61
(dp361
sg70
g346
sg63
(lp362
g56
(g57
g58
NtRp363
(dp364
g61
(dp365
g69
I3
ssg70
g359
sg63
(lp366
S''
asbasbasbag56
(g72
g58
NtRp367
(dp368
g61
(dp369
sg70
g258
sg63
(lp370
g56
(g77
g58
NtRp371
(dp372
g61
(dp373
g81
g82
ssg70
g367
sg63
(lp374
S'path'
p375
asbag56
(g77
g58
NtRp376
(dp377
g61
(dp378
g88
g89
ssg70
g367
sg63
(lp379
S':'
asbag56
(g77
g58
NtRp380
(dp381
g61
(dp382
sg70
g367
sg63
(lp383
g56
(g57
g58
NtRp384
(dp385
g61
(dp386
g69
I3
ssg70
g380
sg63
(lp387
S''
asbasbasbag56
(g72
g58
NtRp388
(dp389
g61
(dp390
sg70
g258
sg63
(lp391
g56
(g77
g58
NtRp392
(dp393
g61
(dp394
g81
g82
ssg70
g388
sg63
(lp395
S'secure'
p396
asbag56
(g77
g58
NtRp397
(dp398
g61
(dp399
g88
g89
ssg70
g388
sg63
(lp400
S':'
asbag56
(g77
g58
NtRp401
(dp402
g61
(dp403
sg70
g388
sg63
(lp404
g56
(g57
g58
NtRp405
(dp406
g61
(dp407
g69
I3
ssg70
g401
sg63
(lp408
S''
asbasbasbag56
(g72
g58
NtRp409
(dp410
g61
(dp411
sg70
g258
sg63
(lp412
g56
(g77
g58
NtRp413
(dp414
g61
(dp415
g81
g82
ssg70
g409
sg63
(lp416
S'version'
p417
asbag56
(g77
g58
NtRp418
(dp419
g61
(dp420
g88
g89
ssg70
g409
sg63
(lp421
S':'
asbag56
(g77
g58
NtRp422
(dp423
g61
(dp424
sg70
g409
sg63
(lp425
g56
(g57
g58
NtRp426
(dp427
g61
(dp428
g69
I3
ssg70
g422
sg63
(lp429
S''
asbasbasbasbasbasbasbag56
(g72
g58
NtRp430
(dp431
g61
(dp432
sg70
g233
sg63
(lp433
g56
(g77
g58
NtRp434
(dp435
g61
(dp436
g81
g82
ssg70
g430
sg63
(lp437
S'session_id_admin'
p438
asbag56
(g77
g58
NtRp439
(dp440
g61
(dp441
g88
g89
ssg70
g430
sg63
(lp442
S':'
asbag56
(g77
g58
NtRp443
(dp444
g61
(dp445
sg70
g430
sg63
(lp446
g56
(g57
g58
NtRp447
(dp448
g61
(dp449
g69
I4
ssg70
g443
sg63
(lp450
g56
(g65
g58
NtRp451
(dp452
g61
(dp453
g69
I3
ssg70
Nsg63
(lp454
g56
(g72
g58
NtRp455
(dp456
g61
(dp457
sg70
g451
sg63
(lp458
g56
(g77
g58
NtRp459
(dp460
g61
(dp461
g81
g82
ssg70
g455
sg63
(lp462
g270
asbag56
(g77
g58
NtRp463
(dp464
g61
(dp465
g88
g89
ssg70
g455
sg63
(lp466
S':'
asbag56
(g77
g58
NtRp467
(dp468
g61
(dp469
sg70
g455
sg63
(lp470
g56
(g57
g58
NtRp471
(dp472
g61
(dp473
g69
I3
ssg70
g467
sg63
(lp474
S''
asbasbasbag56
(g72
g58
NtRp475
(dp476
g61
(dp477
sg70
g451
sg63
(lp478
g56
(g77
g58
NtRp479
(dp480
g61
(dp481
g81
g82
ssg70
g475
sg63
(lp482
g291
asbag56
(g77
g58
NtRp483
(dp484
g61
(dp485
g88
g89
ssg70
g475
sg63
(lp486
S':'
asbag56
(g77
g58
NtRp487
(dp488
g61
(dp489
sg70
g475
sg63
(lp490
g56
(g57
g58
NtRp491
(dp492
g61
(dp493
g69
I3
ssg70
g487
sg63
(lp494
S''
asbasbasbag56
(g72
g58
NtRp495
(dp496
g61
(dp497
sg70
g451
sg63
(lp498
g56
(g77
g58
NtRp499
(dp500
g61
(dp501
g81
g82
ssg70
g495
sg63
(lp502
g312
asbag56
(g77
g58
NtRp503
(dp504
g61
(dp505
g88
g89
ssg70
g495
sg63
(lp506
S':'
asbag56
(g77
g58
NtRp507
(dp508
g61
(dp509
sg70
g495
sg63
(lp510
g56
(g57
g58
NtRp511
(dp512
g61
(dp513
g69
I3
ssg70
g507
sg63
(lp514
S''
asbasbasbag56
(g72
g58
NtRp515
(dp516
g61
(dp517
sg70
g451
sg63
(lp518
g56
(g77
g58
NtRp519
(dp520
g61
(dp521
g81
g82
ssg70
g515
sg63
(lp522
g333
asbag56
(g77
g58
NtRp523
(dp524
g61
(dp525
g88
g89
ssg70
g515
sg63
(lp526
S':'
asbag56
(g77
g58
NtRp527
(dp528
g61
(dp529
sg70
g515
sg63
(lp530
g56
(g57
g58
NtRp531
(dp532
g61
(dp533
g69
I3
ssg70
g527
sg63
(lp534
S''
asbasbasbag56
(g72
g58
NtRp535
(dp536
g61
(dp537
sg70
g451
sg63
(lp538
g56
(g77
g58
NtRp539
(dp540
g61
(dp541
g81
g82
ssg70
g535
sg63
(lp542
g354
asbag56
(g77
g58
NtRp543
(dp544
g61
(dp545
g88
g89
ssg70
g535
sg63
(lp546
S':'
asbag56
(g77
g58
NtRp547
(dp548
g61
(dp549
sg70
g535
sg63
(lp550
g56
(g57
g58
NtRp551
(dp552
g61
(dp553
g69
I3
ssg70
g547
sg63
(lp554
S''
asbasbasbag56
(g72
g58
NtRp555
(dp556
g61
(dp557
sg70
g451
sg63
(lp558
g56
(g77
g58
NtRp559
(dp560
g61
(dp561
g81
g82
ssg70
g555
sg63
(lp562
g375
asbag56
(g77
g58
NtRp563
(dp564
g61
(dp565
g88
g89
ssg70
g555
sg63
(lp566
S':'
asbag56
(g77
g58
NtRp567
(dp568
g61
(dp569
sg70
g555
sg63
(lp570
g56
(g57
g58
NtRp571
(dp572
g61
(dp573
g69
I3
ssg70
g567
sg63
(lp574
S''
asbasbasbag56
(g72
g58
NtRp575
(dp576
g61
(dp577
sg70
g451
sg63
(lp578
g56
(g77
g58
NtRp579
(dp580
g61
(dp581
g81
g82
ssg70
g575
sg63
(lp582
g396
asbag56
(g77
g58
NtRp583
(dp584
g61
(dp585
g88
g89
ssg70
g575
sg63
(lp586
S':'
asbag56
(g77
g58
NtRp587
(dp588
g61
(dp589
sg70
g575
sg63
(lp590
g56
(g57
g58
NtRp591
(dp592
g61
(dp593
g69
I3
ssg70
g587
sg63
(lp594
S''
asbasbasbag56
(g72
g58
NtRp595
(dp596
g61
(dp597
sg70
g451
sg63
(lp598
g56
(g77
g58
NtRp599
(dp600
g61
(dp601
g81
g82
ssg70
g595
sg63
(lp602
g417
asbag56
(g77
g58
NtRp603
(dp604
g61
(dp605
g88
g89
ssg70
g595
sg63
(lp606
S':'
asbag56
(g77
g58
NtRp607
(dp608
g61
(dp609
sg70
g595
sg63
(lp610
g56
(g57
g58
NtRp611
(dp612
g61
(dp613
g69
I3
ssg70
g607
sg63
(lp614
S''
asbasbasbasbasbasbasbag56
(g72
g58
NtRp615
(dp616
g61
(dp617
sg70
g233
sg63
(lp618
g56
(g77
g58
NtRp619
(dp620
g61
(dp621
g81
g82
ssg70
g615
sg63
(lp622
S'session_id_welcome'
p623
asbag56
(g77
g58
NtRp624
(dp625
g61
(dp626
g88
g89
ssg70
g615
sg63
(lp627
S':'
asbag56
(g77
g58
NtRp628
(dp629
g61
(dp630
sg70
g615
sg63
(lp631
g56
(g57
g58
NtRp632
(dp633
g61
(dp634
g69
I4
ssg70
g628
sg63
(lp635
g56
(g65
g58
NtRp636
(dp637
g61
(dp638
g69
I3
ssg70
Nsg63
(lp639
g56
(g72
g58
NtRp640
(dp641
g61
(dp642
sg70
g636
sg63
(lp643
g56
(g77
g58
NtRp644
(dp645
g61
(dp646
g81
g82
ssg70
g640
sg63
(lp647
g270
asbag56
(g77
g58
NtRp648
(dp649
g61
(dp650
g88
g89
ssg70
g640
sg63
(lp651
S':'
asbag56
(g77
g58
NtRp652
(dp653
g61
(dp654
sg70
g640
sg63
(lp655
g56
(g57
g58
NtRp656
(dp657
g61
(dp658
g69
I3
ssg70
g652
sg63
(lp659
S''
asbasbasbag56
(g72
g58
NtRp660
(dp661
g61
(dp662
sg70
g636
sg63
(lp663
g56
(g77
g58
NtRp664
(dp665
g61
(dp666
g81
g82
ssg70
g660
sg63
(lp667
g291
asbag56
(g77
g58
NtRp668
(dp669
g61
(dp670
g88
g89
ssg70
g660
sg63
(lp671
S':'
asbag56
(g77
g58
NtRp672
(dp673
g61
(dp674
sg70
g660
sg63
(lp675
g56
(g57
g58
NtRp676
(dp677
g61
(dp678
g69
I3
ssg70
g672
sg63
(lp679
S''
asbasbasbag56
(g72
g58
NtRp680
(dp681
g61
(dp682
sg70
g636
sg63
(lp683
g56
(g77
g58
NtRp684
(dp685
g61
(dp686
g81
g82
ssg70
g680
sg63
(lp687
g312
asbag56
(g77
g58
NtRp688
(dp689
g61
(dp690
g88
g89
ssg70
g680
sg63
(lp691
S':'
asbag56
(g77
g58
NtRp692
(dp693
g61
(dp694
sg70
g680
sg63
(lp695
g56
(g57
g58
NtRp696
(dp697
g61
(dp698
g69
I3
ssg70
g692
sg63
(lp699
S''
asbasbasbag56
(g72
g58
NtRp700
(dp701
g61
(dp702
sg70
g636
sg63
(lp703
g56
(g77
g58
NtRp704
(dp705
g61
(dp706
g81
g82
ssg70
g700
sg63
(lp707
g333
asbag56
(g77
g58
NtRp708
(dp709
g61
(dp710
g88
g89
ssg70
g700
sg63
(lp711
S':'
asbag56
(g77
g58
NtRp712
(dp713
g61
(dp714
sg70
g700
sg63
(lp715
g56
(g57
g58
NtRp716
(dp717
g61
(dp718
g69
I3
ssg70
g712
sg63
(lp719
S''
asbasbasbag56
(g72
g58
NtRp720
(dp721
g61
(dp722
sg70
g636
sg63
(lp723
g56
(g77
g58
NtRp724
(dp725
g61
(dp726
g81
g82
ssg70
g720
sg63
(lp727
g354
asbag56
(g77
g58
NtRp728
(dp729
g61
(dp730
g88
g89
ssg70
g720
sg63
(lp731
S':'
asbag56
(g77
g58
NtRp732
(dp733
g61
(dp734
sg70
g720
sg63
(lp735
g56
(g57
g58
NtRp736
(dp737
g61
(dp738
g69
I3
ssg70
g732
sg63
(lp739
S''
asbasbasbag56
(g72
g58
NtRp740
(dp741
g61
(dp742
sg70
g636
sg63
(lp743
g56
(g77
g58
NtRp744
(dp745
g61
(dp746
g81
g82
ssg70
g740
sg63
(lp747
g375
asbag56
(g77
g58
NtRp748
(dp749
g61
(dp750
g88
g89
ssg70
g740
sg63
(lp751
S':'
asbag56
(g77
g58
NtRp752
(dp753
g61
(dp754
sg70
g740
sg63
(lp755
g56
(g57
g58
NtRp756
(dp757
g61
(dp758
g69
I3
ssg70
g752
sg63
(lp759
S''
asbasbasbag56
(g72
g58
NtRp760
(dp761
g61
(dp762
sg70
g636
sg63
(lp763
g56
(g77
g58
NtRp764
(dp765
g61
(dp766
g81
g82
ssg70
g760
sg63
(lp767
g396
asbag56
(g77
g58
NtRp768
(dp769
g61
(dp770
g88
g89
ssg70
g760
sg63
(lp771
S':'
asbag56
(g77
g58
NtRp772
(dp773
g61
(dp774
sg70
g760
sg63
(lp775
g56
(g57
g58
NtRp776
(dp777
g61
(dp778
g69
I3
ssg70
g772
sg63
(lp779
S''
asbasbasbag56
(g72
g58
NtRp780
(dp781
g61
(dp782
sg70
g636
sg63
(lp783
g56
(g77
g58
NtRp784
(dp785
g61
(dp786
g81
g82
ssg70
g780
sg63
(lp787
g417
asbag56
(g77
g58
NtRp788
(dp789
g61
(dp790
g88
g89
ssg70
g780
sg63
(lp791
S':'
asbag56
(g77
g58
NtRp792
(dp793
g61
(dp794
sg70
g780
sg63
(lp795
g56
(g57
g58
NtRp796
(dp797
g61
(dp798
g69
I3
ssg70
g792
sg63
(lp799
S''
asbasbasbasbasbasbasbasbasbasbasbag56
(g72
g58
NtRp800
(dp801
g61
(dp802
sg70
g66
sg63
(lp803
g56
(g77
g58
NtRp804
(dp805
g61
(dp806
g81
g82
ssg70
g800
sg63
(lp807
S'env'
p808
asbag56
(g77
g58
NtRp809
(dp810
g61
(dp811
g88
g89
ssg70
g800
sg63
(lp812
S':'
asbag56
(g77
g58
NtRp813
(dp814
g61
(dp815
sg70
g800
sg63
(lp816
g56
(g57
g58
NtRp817
(dp818
g61
(dp819
g69
I5
ssg70
g813
sg63
(lp820
g56
(g65
g58
NtRp821
(dp822
g61
(dp823
g69
I4
ssg70
Nsg63
(lp824
g56
(g72
g58
NtRp825
(dp826
g61
(dp827
sg70
g821
sg63
(lp828
g56
(g77
g58
NtRp829
(dp830
g61
(dp831
g81
g82
ssg70
g825
sg63
(lp832
S'app_folders'
p833
asbag56
(g77
g58
NtRp834
(dp835
g61
(dp836
g88
g89
ssg70
g825
sg63
(lp837
S':'
asbag56
(g77
g58
NtRp838
(dp839
g61
(dp840
sg70
g825
sg63
(lp841
g56
(g57
g58
NtRp842
(dp843
g61
(dp844
g69
I4
ssg70
g838
sg63
(lp845
S"set(['/home/umum/web2py/applications/simpel_mail_sistem/', '/home/umum/web2py/applications/welcome/', '/home/umum/web2py/applications/admin/'])"
p846
asbasbasbag56
(g72
g58
NtRp847
(dp848
g61
(dp849
sg70
g821
sg63
(lp850
g56
(g77
g58
NtRp851
(dp852
g61
(dp853
g81
g82
ssg70
g847
sg63
(lp854
S'applications_parent'
p855
asbag56
(g77
g58
NtRp856
(dp857
g61
(dp858
g88
g89
ssg70
g847
sg63
(lp859
S':'
asbag56
(g77
g58
NtRp860
(dp861
g61
(dp862
sg70
g847
sg63
(lp863
g56
(g57
g58
NtRp864
(dp865
g61
(dp866
g69
I4
ssg70
g860
sg63
(lp867
S'/home/umum/web2py'
p868
asbasbasbag56
(g72
g58
NtRp869
(dp870
g61
(dp871
sg70
g821
sg63
(lp872
g56
(g77
g58
NtRp873
(dp874
g61
(dp875
g81
g82
ssg70
g869
sg63
(lp876
S'cmd_args'
p877
asbag56
(g77
g58
NtRp878
(dp879
g61
(dp880
g88
g89
ssg70
g869
sg63
(lp881
S':'
asbag56
(g77
g58
NtRp882
(dp883
g61
(dp884
sg70
g869
sg63
(lp885
g56
(g57
g58
NtRp886
(dp887
g61
(dp888
g69
I4
ssg70
g882
sg63
(lp889
g56
(g65
g58
NtRp890
(dp891
g61
(dp892
g69
I3
ssg70
Nsg63
(lp893
sbasbasbasbag56
(g72
g58
NtRp894
(dp895
g61
(dp896
sg70
g821
sg63
(lp897
g56
(g77
g58
NtRp898
(dp899
g61
(dp900
g81
g82
ssg70
g894
sg63
(lp901
S'cmd_options'
p902
asbag56
(g77
g58
NtRp903
(dp904
g61
(dp905
g88
g89
ssg70
g894
sg63
(lp906
S':'
asbag56
(g77
g58
NtRp907
(dp908
g61
(dp909
sg70
g894
sg63
(lp910
g56
(g57
g58
NtRp911
(dp912
g61
(dp913
g69
I4
ssg70
g907
sg63
(lp914
S"<Values at 0x2816c20: {'verbose': False, 'ip': '127.0.0.1', 'shutdown_timeout': 5, 'taskbar': False, 'port': 8000, 'maxthreads': None, 'softcron': False, 'server_name': 'diklat03', 'bpython': False, 'nogui': False, 'nocron': False, 'extcron': False, 'debuglevel': 30, 'test': None, 'folder': '/home/umum/web2py', 'config': '', 'import_models': False, 'winservice': '', 'shell': None, 'run': '', 'log_filename': 'httpserver.log', 'args': [''], 'profiler_filename': None, 'ssl_private_key': '', 'password': '<ask>', 'request_queue_size': 5, 'ssl_certificate': '', 'cronjob': False, 'plain': False, 'quiet': False, 'interfaces': None, 'minthreads': None, 'timeout': 10, 'numthreads': None, 'nobanner': False, 'pid_filename': 'httpserver.pid'}>"
p915
asbasbasbag56
(g72
g58
NtRp916
(dp917
g61
(dp918
sg70
g821
sg63
(lp919
g56
(g77
g58
NtRp920
(dp921
g61
(dp922
g81
g82
ssg70
g916
sg63
(lp923
S'db_sessions'
p924
asbag56
(g77
g58
NtRp925
(dp926
g61
(dp927
g88
g89
ssg70
g916
sg63
(lp928
S':'
asbag56
(g77
g58
NtRp929
(dp930
g61
(dp931
sg70
g916
sg63
(lp932
g56
(g57
g58
NtRp933
(dp934
g61
(dp935
g69
I4
ssg70
g929
sg63
(lp936
S'set([])'
p937
asbasbasbag56
(g72
g58
NtRp938
(dp939
g61
(dp940
sg70
g821
sg63
(lp941
g56
(g77
g58
NtRp942
(dp943
g61
(dp944
g81
g82
ssg70
g938
sg63
(lp945
S'debugging'
p946
asbag56
(g77
g58
NtRp947
(dp948
g61
(dp949
g88
g89
ssg70
g938
sg63
(lp950
S':'
asbag56
(g77
g58
NtRp951
(dp952
g61
(dp953
sg70
g938
sg63
(lp954
g56
(g57
g58
NtRp955
(dp956
g61
(dp957
g69
I4
ssg70
g951
sg63
(lp958
g99
asbasbasbag56
(g72
g58
NtRp959
(dp960
g61
(dp961
sg70
g821
sg63
(lp962
g56
(g77
g58
NtRp963
(dp964
g61
(dp965
g81
g82
ssg70
g959
sg63
(lp966
S'gluon_parent'
p967
asbag56
(g77
g58
NtRp968
(dp969
g61
(dp970
g88
g89
ssg70
g959
sg63
(lp971
S':'
asbag56
(g77
g58
NtRp972
(dp973
g61
(dp974
sg70
g959
sg63
(lp975
g56
(g57
g58
NtRp976
(dp977
g61
(dp978
g69
I4
ssg70
g972
sg63
(lp979
S'/usr/share/web2py'
p980
asbasbasbag56
(g72
g58
NtRp981
(dp982
g61
(dp983
sg70
g821
sg63
(lp984
g56
(g77
g58
NtRp985
(dp986
g61
(dp987
g81
g82
ssg70
g981
sg63
(lp988
S'http_accept'
p989
asbag56
(g77
g58
NtRp990
(dp991
g61
(dp992
g88
g89
ssg70
g981
sg63
(lp993
S':'
asbag56
(g77
g58
NtRp994
(dp995
g61
(dp996
sg70
g981
sg63
(lp997
g56
(g57
g58
NtRp998
(dp999
g61
(dp1000
g69
I4
ssg70
g994
sg63
(lp1001
S'application/xml,application/xhtml+xml,text/html;q=0.9,text/plain;q=0.8,image/png,*/*;q=0.5'
p1002
asbasbasbag56
(g72
g58
NtRp1003
(dp1004
g61
(dp1005
sg70
g821
sg63
(lp1006
g56
(g77
g58
NtRp1007
(dp1008
g61
(dp1009
g81
g82
ssg70
g1003
sg63
(lp1010
S'http_accept_charset'
p1011
asbag56
(g77
g58
NtRp1012
(dp1013
g61
(dp1014
g88
g89
ssg70
g1003
sg63
(lp1015
S':'
asbag56
(g77
g58
NtRp1016
(dp1017
g61
(dp1018
sg70
g1003
sg63
(lp1019
g56
(g57
g58
NtRp1020
(dp1021
g61
(dp1022
g69
I4
ssg70
g1016
sg63
(lp1023
S'ISO-8859-1,utf-8;q=0.7,*;q=0.3'
p1024
asbasbasbag56
(g72
g58
NtRp1025
(dp1026
g61
(dp1027
sg70
g821
sg63
(lp1028
g56
(g77
g58
NtRp1029
(dp1030
g61
(dp1031
g81
g82
ssg70
g1025
sg63
(lp1032
S'http_accept_encoding'
p1033
asbag56
(g77
g58
NtRp1034
(dp1035
g61
(dp1036
g88
g89
ssg70
g1025
sg63
(lp1037
S':'
asbag56
(g77
g58
NtRp1038
(dp1039
g61
(dp1040
sg70
g1025
sg63
(lp1041
g56
(g57
g58
NtRp1042
(dp1043
g61
(dp1044
g69
I4
ssg70
g1038
sg63
(lp1045
S'gzip,deflate,sdch'
p1046
asbasbasbag56
(g72
g58
NtRp1047
(dp1048
g61
(dp1049
sg70
g821
sg63
(lp1050
g56
(g77
g58
NtRp1051
(dp1052
g61
(dp1053
g81
g82
ssg70
g1047
sg63
(lp1054
S'http_accept_language'
p1055
asbag56
(g77
g58
NtRp1056
(dp1057
g61
(dp1058
g88
g89
ssg70
g1047
sg63
(lp1059
S':'
asbag56
(g77
g58
NtRp1060
(dp1061
g61
(dp1062
sg70
g1047
sg63
(lp1063
g56
(g57
g58
NtRp1064
(dp1065
g61
(dp1066
g69
I4
ssg70
g1060
sg63
(lp1067
S'en-US,en;q=0.8'
p1068
asbasbasbag56
(g72
g58
NtRp1069
(dp1070
g61
(dp1071
sg70
g821
sg63
(lp1072
g56
(g77
g58
NtRp1073
(dp1074
g61
(dp1075
g81
g82
ssg70
g1069
sg63
(lp1076
S'http_connection'
p1077
asbag56
(g77
g58
NtRp1078
(dp1079
g61
(dp1080
g88
g89
ssg70
g1069
sg63
(lp1081
S':'
asbag56
(g77
g58
NtRp1082
(dp1083
g61
(dp1084
sg70
g1069
sg63
(lp1085
g56
(g57
g58
NtRp1086
(dp1087
g61
(dp1088
g69
I4
ssg70
g1082
sg63
(lp1089
S'keep-alive'
p1090
asbasbasbag56
(g72
g58
NtRp1091
(dp1092
g61
(dp1093
sg70
g821
sg63
(lp1094
g56
(g77
g58
NtRp1095
(dp1096
g61
(dp1097
g81
g82
ssg70
g1091
sg63
(lp1098
S'http_cookie'
p1099
asbag56
(g77
g58
NtRp1100
(dp1101
g61
(dp1102
g88
g89
ssg70
g1091
sg63
(lp1103
S':'
asbag56
(g77
g58
NtRp1104
(dp1105
g61
(dp1106
sg70
g1091
sg63
(lp1107
g56
(g57
g58
NtRp1108
(dp1109
g61
(dp1110
g69
I4
ssg70
g1104
sg63
(lp1111
S'csrftoken=3d7282f47a86a089ea40b8bca9b68a48; session_id_welcome=127.0.0.1-c7d10aff-bac4-401f-a6c5-f6bdbcf01188; session_id_admin=127.0.0.1-91ffa34b-64bd-4738-a29d-f581d7f3aa9d'
p1112
asbasbasbag56
(g72
g58
NtRp1113
(dp1114
g61
(dp1115
sg70
g821
sg63
(lp1116
g56
(g77
g58
NtRp1117
(dp1118
g61
(dp1119
g81
g82
ssg70
g1113
sg63
(lp1120
S'http_host'
p1121
asbag56
(g77
g58
NtRp1122
(dp1123
g61
(dp1124
g88
g89
ssg70
g1113
sg63
(lp1125
S':'
asbag56
(g77
g58
NtRp1126
(dp1127
g61
(dp1128
sg70
g1113
sg63
(lp1129
g56
(g57
g58
NtRp1130
(dp1131
g61
(dp1132
g69
I4
ssg70
g1126
sg63
(lp1133
S'127.0.0.1:8000'
p1134
asbasbasbag56
(g72
g58
NtRp1135
(dp1136
g61
(dp1137
sg70
g821
sg63
(lp1138
g56
(g77
g58
NtRp1139
(dp1140
g61
(dp1141
g81
g82
ssg70
g1135
sg63
(lp1142
S'http_user_agent'
p1143
asbag56
(g77
g58
NtRp1144
(dp1145
g61
(dp1146
g88
g89
ssg70
g1135
sg63
(lp1147
S':'
asbag56
(g77
g58
NtRp1148
(dp1149
g61
(dp1150
sg70
g1135
sg63
(lp1151
g56
(g57
g58
NtRp1152
(dp1153
g61
(dp1154
g69
I4
ssg70
g1148
sg63
(lp1155
S'Mozilla/5.0 (X11; U; Linux x86_64; en-US) AppleWebKit/534.3 (KHTML, like Gecko) Chrome/6.0.472.63 Safari/534.3'
p1156
asbasbasbag56
(g72
g58
NtRp1157
(dp1158
g61
(dp1159
sg70
g821
sg63
(lp1160
g56
(g77
g58
NtRp1161
(dp1162
g61
(dp1163
g81
g82
ssg70
g1157
sg63
(lp1164
S'path_info'
p1165
asbag56
(g77
g58
NtRp1166
(dp1167
g61
(dp1168
g88
g89
ssg70
g1157
sg63
(lp1169
S':'
asbag56
(g77
g58
NtRp1170
(dp1171
g61
(dp1172
sg70
g1157
sg63
(lp1173
g56
(g57
g58
NtRp1174
(dp1175
g61
(dp1176
g69
I4
ssg70
g1170
sg63
(lp1177
S'/simpel_mail_sistem/default/index'
p1178
asbasbasbag56
(g72
g58
NtRp1179
(dp1180
g61
(dp1181
sg70
g821
sg63
(lp1182
g56
(g77
g58
NtRp1183
(dp1184
g61
(dp1185
g81
g82
ssg70
g1179
sg63
(lp1186
S'query_string'
p1187
asbag56
(g77
g58
NtRp1188
(dp1189
g61
(dp1190
g88
g89
ssg70
g1179
sg63
(lp1191
S':'
asbag56
(g77
g58
NtRp1192
(dp1193
g61
(dp1194
sg70
g1179
sg63
(lp1195
g56
(g57
g58
NtRp1196
(dp1197
g61
(dp1198
g69
I4
ssg70
g1192
sg63
(lp1199
S''
asbasbasbag56
(g72
g58
NtRp1200
(dp1201
g61
(dp1202
sg70
g821
sg63
(lp1203
g56
(g77
g58
NtRp1204
(dp1205
g61
(dp1206
g81
g82
ssg70
g1200
sg63
(lp1207
S'remote_addr'
p1208
asbag56
(g77
g58
NtRp1209
(dp1210
g61
(dp1211
g88
g89
ssg70
g1200
sg63
(lp1212
S':'
asbag56
(g77
g58
NtRp1213
(dp1214
g61
(dp1215
sg70
g1200
sg63
(lp1216
g56
(g57
g58
NtRp1217
(dp1218
g61
(dp1219
g69
I4
ssg70
g1213
sg63
(lp1220
g189
asbasbasbag56
(g72
g58
NtRp1221
(dp1222
g61
(dp1223
sg70
g821
sg63
(lp1224
g56
(g77
g58
NtRp1225
(dp1226
g61
(dp1227
g81
g82
ssg70
g1221
sg63
(lp1228
S'remote_port'
p1229
asbag56
(g77
g58
NtRp1230
(dp1231
g61
(dp1232
g88
g89
ssg70
g1221
sg63
(lp1233
S':'
asbag56
(g77
g58
NtRp1234
(dp1235
g61
(dp1236
sg70
g1221
sg63
(lp1237
g56
(g57
g58
NtRp1238
(dp1239
g61
(dp1240
g69
I4
ssg70
g1234
sg63
(lp1241
S'58713'
p1242
asbasbasbag56
(g72
g58
NtRp1243
(dp1244
g61
(dp1245
sg70
g821
sg63
(lp1246
g56
(g77
g58
NtRp1247
(dp1248
g61
(dp1249
g81
g82
ssg70
g1243
sg63
(lp1250
S'request_method'
p1251
asbag56
(g77
g58
NtRp1252
(dp1253
g61
(dp1254
g88
g89
ssg70
g1243
sg63
(lp1255
S':'
asbag56
(g77
g58
NtRp1256
(dp1257
g61
(dp1258
sg70
g1243
sg63
(lp1259
g56
(g57
g58
NtRp1260
(dp1261
g61
(dp1262
g69
I4
ssg70
g1256
sg63
(lp1263
S'GET'
p1264
asbasbasbag56
(g72
g58
NtRp1265
(dp1266
g61
(dp1267
sg70
g821
sg63
(lp1268
g56
(g77
g58
NtRp1269
(dp1270
g61
(dp1271
g81
g82
ssg70
g1265
sg63
(lp1272
S'script_name'
p1273
asbag56
(g77
g58
NtRp1274
(dp1275
g61
(dp1276
g88
g89
ssg70
g1265
sg63
(lp1277
S':'
asbag56
(g77
g58
NtRp1278
(dp1279
g61
(dp1280
sg70
g1265
sg63
(lp1281
g56
(g57
g58
NtRp1282
(dp1283
g61
(dp1284
g69
I4
ssg70
g1278
sg63
(lp1285
S''
asbasbasbag56
(g72
g58
NtRp1286
(dp1287
g61
(dp1288
sg70
g821
sg63
(lp1289
g56
(g77
g58
NtRp1290
(dp1291
g61
(dp1292
g81
g82
ssg70
g1286
sg63
(lp1293
S'server_name'
p1294
asbag56
(g77
g58
NtRp1295
(dp1296
g61
(dp1297
g88
g89
ssg70
g1286
sg63
(lp1298
S':'
asbag56
(g77
g58
NtRp1299
(dp1300
g61
(dp1301
sg70
g1286
sg63
(lp1302
g56
(g57
g58
NtRp1303
(dp1304
g61
(dp1305
g69
I4
ssg70
g1299
sg63
(lp1306
S'diklat03'
p1307
asbasbasbag56
(g72
g58
NtRp1308
(dp1309
g61
(dp1310
sg70
g821
sg63
(lp1311
g56
(g77
g58
NtRp1312
(dp1313
g61
(dp1314
g81
g82
ssg70
g1308
sg63
(lp1315
S'server_port'
p1316
asbag56
(g77
g58
NtRp1317
(dp1318
g61
(dp1319
g88
g89
ssg70
g1308
sg63
(lp1320
S':'
asbag56
(g77
g58
NtRp1321
(dp1322
g61
(dp1323
sg70
g1308
sg63
(lp1324
g56
(g57
g58
NtRp1325
(dp1326
g61
(dp1327
g69
I4
ssg70
g1321
sg63
(lp1328
S'8000'
p1329
asbasbasbag56
(g72
g58
NtRp1330
(dp1331
g61
(dp1332
sg70
g821
sg63
(lp1333
g56
(g77
g58
NtRp1334
(dp1335
g61
(dp1336
g81
g82
ssg70
g1330
sg63
(lp1337
S'server_protocol'
p1338
asbag56
(g77
g58
NtRp1339
(dp1340
g61
(dp1341
g88
g89
ssg70
g1330
sg63
(lp1342
S':'
asbag56
(g77
g58
NtRp1343
(dp1344
g61
(dp1345
sg70
g1330
sg63
(lp1346
g56
(g57
g58
NtRp1347
(dp1348
g61
(dp1349
g69
I4
ssg70
g1343
sg63
(lp1350
S'HTTP/1.1'
p1351
asbasbasbag56
(g72
g58
NtRp1352
(dp1353
g61
(dp1354
sg70
g821
sg63
(lp1355
g56
(g77
g58
NtRp1356
(dp1357
g61
(dp1358
g81
g82
ssg70
g1352
sg63
(lp1359
S'server_software'
p1360
asbag56
(g77
g58
NtRp1361
(dp1362
g61
(dp1363
g88
g89
ssg70
g1352
sg63
(lp1364
S':'
asbag56
(g77
g58
NtRp1365
(dp1366
g61
(dp1367
sg70
g1352
sg63
(lp1368
g56
(g57
g58
NtRp1369
(dp1370
g61
(dp1371
g69
I4
ssg70
g1365
sg63
(lp1372
S'Rocket 1.2.2'
p1373
asbasbasbag56
(g72
g58
NtRp1374
(dp1375
g61
(dp1376
sg70
g821
sg63
(lp1377
g56
(g77
g58
NtRp1378
(dp1379
g61
(dp1380
g81
g82
ssg70
g1374
sg63
(lp1381
S'web2py_crontype'
p1382
asbag56
(g77
g58
NtRp1383
(dp1384
g61
(dp1385
g88
g89
ssg70
g1374
sg63
(lp1386
S':'
asbag56
(g77
g58
NtRp1387
(dp1388
g61
(dp1389
sg70
g1374
sg63
(lp1390
g56
(g57
g58
NtRp1391
(dp1392
g61
(dp1393
g69
I4
ssg70
g1387
sg63
(lp1394
S'hard'
p1395
asbasbasbag56
(g72
g58
NtRp1396
(dp1397
g61
(dp1398
sg70
g821
sg63
(lp1399
g56
(g77
g58
NtRp1400
(dp1401
g61
(dp1402
g81
g82
ssg70
g1396
sg63
(lp1403
S'web2py_path'
p1404
asbag56
(g77
g58
NtRp1405
(dp1406
g61
(dp1407
g88
g89
ssg70
g1396
sg63
(lp1408
S':'
asbag56
(g77
g58
NtRp1409
(dp1410
g61
(dp1411
sg70
g1396
sg63
(lp1412
g56
(g57
g58
NtRp1413
(dp1414
g61
(dp1415
g69
I4
ssg70
g1409
sg63
(lp1416
g868
asbasbasbag56
(g72
g58
NtRp1417
(dp1418
g61
(dp1419
sg70
g821
sg63
(lp1420
g56
(g77
g58
NtRp1421
(dp1422
g61
(dp1423
g81
g82
ssg70
g1417
sg63
(lp1424
S'web2py_version'
p1425
asbag56
(g77
g58
NtRp1426
(dp1427
g61
(dp1428
g88
g89
ssg70
g1417
sg63
(lp1429
S':'
asbag56
(g77
g58
NtRp1430
(dp1431
g61
(dp1432
sg70
g1417
sg63
(lp1433
g56
(g57
g58
NtRp1434
(dp1435
g61
(dp1436
g69
I4
ssg70
g1430
sg63
(lp1437
S'Version 1.97.1 (2011-06-26 19:25:44)\n'
p1438
asbasbasbag56
(g72
g58
NtRp1439
(dp1440
g61
(dp1441
sg70
g821
sg63
(lp1442
g56
(g77
g58
NtRp1443
(dp1444
g61
(dp1445
g81
g82
ssg70
g1439
sg63
(lp1446
S'wsgi_errors'
p1447
asbag56
(g77
g58
NtRp1448
(dp1449
g61
(dp1450
g88
g89
ssg70
g1439
sg63
(lp1451
S':'
asbag56
(g77
g58
NtRp1452
(dp1453
g61
(dp1454
sg70
g1439
sg63
(lp1455
g56
(g57
g58
NtRp1456
(dp1457
g61
(dp1458
g69
I4
ssg70
g1452
sg63
(lp1459
S"<open file '<stderr>', mode 'w' at 0x7f426b61b1e0>"
p1460
asbasbasbag56
(g72
g58
NtRp1461
(dp1462
g61
(dp1463
sg70
g821
sg63
(lp1464
g56
(g77
g58
NtRp1465
(dp1466
g61
(dp1467
g81
g82
ssg70
g1461
sg63
(lp1468
S'wsgi_file_wrapper'
p1469
asbag56
(g77
g58
NtRp1470
(dp1471
g61
(dp1472
g88
g89
ssg70
g1461
sg63
(lp1473
S':'
asbag56
(g77
g58
NtRp1474
(dp1475
g61
(dp1476
sg70
g1461
sg63
(lp1477
g56
(g57
g58
NtRp1478
(dp1479
g61
(dp1480
g69
I4
ssg70
g1474
sg63
(lp1481
S'<class gluon.rocket.FileWrapper at 0x23a67d0>'
p1482
asbasbasbag56
(g72
g58
NtRp1483
(dp1484
g61
(dp1485
sg70
g821
sg63
(lp1486
g56
(g77
g58
NtRp1487
(dp1488
g61
(dp1489
g81
g82
ssg70
g1483
sg63
(lp1490
S'wsgi_input'
p1491
asbag56
(g77
g58
NtRp1492
(dp1493
g61
(dp1494
g88
g89
ssg70
g1483
sg63
(lp1495
S':'
asbag56
(g77
g58
NtRp1496
(dp1497
g61
(dp1498
sg70
g1483
sg63
(lp1499
g56
(g57
g58
NtRp1500
(dp1501
g61
(dp1502
g69
I4
ssg70
g1496
sg63
(lp1503
S'<socket._fileobject object at 0x2fc21d0>'
p1504
asbasbasbag56
(g72
g58
NtRp1505
(dp1506
g61
(dp1507
sg70
g821
sg63
(lp1508
g56
(g77
g58
NtRp1509
(dp1510
g61
(dp1511
g81
g82
ssg70
g1505
sg63
(lp1512
S'wsgi_multiprocess'
p1513
asbag56
(g77
g58
NtRp1514
(dp1515
g61
(dp1516
g88
g89
ssg70
g1505
sg63
(lp1517
S':'
asbag56
(g77
g58
NtRp1518
(dp1519
g61
(dp1520
sg70
g1505
sg63
(lp1521
g56
(g57
g58
NtRp1522
(dp1523
g61
(dp1524
g69
I4
ssg70
g1518
sg63
(lp1525
g99
asbasbasbag56
(g72
g58
NtRp1526
(dp1527
g61
(dp1528
sg70
g821
sg63
(lp1529
g56
(g77
g58
NtRp1530
(dp1531
g61
(dp1532
g81
g82
ssg70
g1526
sg63
(lp1533
S'wsgi_multithread'
p1534
asbag56
(g77
g58
NtRp1535
(dp1536
g61
(dp1537
g88
g89
ssg70
g1526
sg63
(lp1538
S':'
asbag56
(g77
g58
NtRp1539
(dp1540
g61
(dp1541
sg70
g1526
sg63
(lp1542
g56
(g57
g58
NtRp1543
(dp1544
g61
(dp1545
g69
I4
ssg70
g1539
sg63
(lp1546
S'True'
p1547
asbasbasbag56
(g72
g58
NtRp1548
(dp1549
g61
(dp1550
sg70
g821
sg63
(lp1551
g56
(g77
g58
NtRp1552
(dp1553
g61
(dp1554
g81
g82
ssg70
g1548
sg63
(lp1555
S'wsgi_run_once'
p1556
asbag56
(g77
g58
NtRp1557
(dp1558
g61
(dp1559
g88
g89
ssg70
g1548
sg63
(lp1560
S':'
asbag56
(g77
g58
NtRp1561
(dp1562
g61
(dp1563
sg70
g1548
sg63
(lp1564
g56
(g57
g58
NtRp1565
(dp1566
g61
(dp1567
g69
I4
ssg70
g1561
sg63
(lp1568
g99
asbasbasbag56
(g72
g58
NtRp1569
(dp1570
g61
(dp1571
sg70
g821
sg63
(lp1572
g56
(g77
g58
NtRp1573
(dp1574
g61
(dp1575
g81
g82
ssg70
g1569
sg63
(lp1576
S'wsgi_url_scheme'
p1577
asbag56
(g77
g58
NtRp1578
(dp1579
g61
(dp1580
g88
g89
ssg70
g1569
sg63
(lp1581
S':'
asbag56
(g77
g58
NtRp1582
(dp1583
g61
(dp1584
sg70
g1569
sg63
(lp1585
g56
(g57
g58
NtRp1586
(dp1587
g61
(dp1588
g69
I4
ssg70
g1582
sg63
(lp1589
S'http'
p1590
asbasbasbag56
(g72
g58
NtRp1591
(dp1592
g61
(dp1593
sg70
g821
sg63
(lp1594
g56
(g77
g58
NtRp1595
(dp1596
g61
(dp1597
g81
g82
ssg70
g1591
sg63
(lp1598
S'wsgi_version'
p1599
asbag56
(g77
g58
NtRp1600
(dp1601
g61
(dp1602
g88
g89
ssg70
g1591
sg63
(lp1603
S':'
asbag56
(g77
g58
NtRp1604
(dp1605
g61
(dp1606
sg70
g1591
sg63
(lp1607
g56
(g57
g58
NtRp1608
(dp1609
g61
(dp1610
g69
I4
ssg70
g1604
sg63
(lp1611
g56
(g65
g58
NtRp1612
(dp1613
g61
(dp1614
g69
I3
ssg70
Nsg63
(lp1615
g56
(g72
g58
NtRp1616
(dp1617
g61
(dp1618
sg70
g1612
sg63
(lp1619
g56
(g77
g58
NtRp1620
(dp1621
g61
(dp1622
sg70
g1616
sg63
(lp1623
g56
(g57
g58
NtRp1624
(dp1625
g61
(dp1626
g69
I3
ssg70
g1620
sg63
(lp1627
S'1'
asbasbasbag56
(g72
g58
NtRp1628
(dp1629
g61
(dp1630
sg70
g1612
sg63
(lp1631
g56
(g77
g58
NtRp1632
(dp1633
g61
(dp1634
sg70
g1628
sg63
(lp1635
g56
(g57
g58
NtRp1636
(dp1637
g61
(dp1638
g69
I3
ssg70
g1632
sg63
(lp1639
S'0'
asbasbasbasbasbasbasbasbasbasbasbag56
(g72
g58
NtRp1640
(dp1641
g61
(dp1642
sg70
g66
sg63
(lp1643
g56
(g77
g58
NtRp1644
(dp1645
g61
(dp1646
g81
g82
ssg70
g1640
sg63
(lp1647
S'extension'
p1648
asbag56
(g77
g58
NtRp1649
(dp1650
g61
(dp1651
g88
g89
ssg70
g1640
sg63
(lp1652
S':'
asbag56
(g77
g58
NtRp1653
(dp1654
g61
(dp1655
sg70
g1640
sg63
(lp1656
g56
(g57
g58
NtRp1657
(dp1658
g61
(dp1659
g69
I5
ssg70
g1653
sg63
(lp1660
S'html'
p1661
asbasbasbag56
(g72
g58
NtRp1662
(dp1663
g61
(dp1664
sg70
g66
sg63
(lp1665
g56
(g77
g58
NtRp1666
(dp1667
g61
(dp1668
g81
g82
ssg70
g1662
sg63
(lp1669
S'folder'
p1670
asbag56
(g77
g58
NtRp1671
(dp1672
g61
(dp1673
g88
g89
ssg70
g1662
sg63
(lp1674
S':'
asbag56
(g77
g58
NtRp1675
(dp1676
g61
(dp1677
sg70
g1662
sg63
(lp1678
g56
(g57
g58
NtRp1679
(dp1680
g61
(dp1681
g69
I5
ssg70
g1675
sg63
(lp1682
S'/home/umum/web2py/applications/simpel_mail_sistem/'
p1683
asbasbasbag56
(g72
g58
NtRp1684
(dp1685
g61
(dp1686
sg70
g66
sg63
(lp1687
g56
(g77
g58
NtRp1688
(dp1689
g61
(dp1690
g81
g82
ssg70
g1684
sg63
(lp1691
S'function'
p1692
asbag56
(g77
g58
NtRp1693
(dp1694
g61
(dp1695
g88
g89
ssg70
g1684
sg63
(lp1696
S':'
asbag56
(g77
g58
NtRp1697
(dp1698
g61
(dp1699
sg70
g1684
sg63
(lp1700
g56
(g57
g58
NtRp1701
(dp1702
g61
(dp1703
g69
I5
ssg70
g1697
sg63
(lp1704
S'index'
p1705
asbasbasbag56
(g72
g58
NtRp1706
(dp1707
g61
(dp1708
sg70
g66
sg63
(lp1709
g56
(g77
g58
NtRp1710
(dp1711
g61
(dp1712
g81
g82
ssg70
g1706
sg63
(lp1713
S'get_vars'
p1714
asbag56
(g77
g58
NtRp1715
(dp1716
g61
(dp1717
g88
g89
ssg70
g1706
sg63
(lp1718
S':'
asbag56
(g77
g58
NtRp1719
(dp1720
g61
(dp1721
sg70
g1706
sg63
(lp1722
g56
(g57
g58
NtRp1723
(dp1724
g61
(dp1725
g69
I5
ssg70
g1719
sg63
(lp1726
g56
(g65
g58
NtRp1727
(dp1728
g61
(dp1729
g69
I4
ssg70
Nsg63
(lp1730
sbasbasbasbag56
(g72
g58
NtRp1731
(dp1732
g61
(dp1733
sg70
g66
sg63
(lp1734
g56
(g77
g58
NtRp1735
(dp1736
g61
(dp1737
g81
g82
ssg70
g1731
sg63
(lp1738
S'is_https'
p1739
asbag56
(g77
g58
NtRp1740
(dp1741
g61
(dp1742
g88
g89
ssg70
g1731
sg63
(lp1743
S':'
asbag56
(g77
g58
NtRp1744
(dp1745
g61
(dp1746
sg70
g1731
sg63
(lp1747
g56
(g57
g58
NtRp1748
(dp1749
g61
(dp1750
g69
I5
ssg70
g1744
sg63
(lp1751
g99
asbasbasbag56
(g72
g58
NtRp1752
(dp1753
g61
(dp1754
sg70
g66
sg63
(lp1755
g56
(g77
g58
NtRp1756
(dp1757
g61
(dp1758
g81
g82
ssg70
g1752
sg63
(lp1759
S'is_local'
p1760
asbag56
(g77
g58
NtRp1761
(dp1762
g61
(dp1763
g88
g89
ssg70
g1752
sg63
(lp1764
S':'
asbag56
(g77
g58
NtRp1765
(dp1766
g61
(dp1767
sg70
g1752
sg63
(lp1768
g56
(g57
g58
NtRp1769
(dp1770
g61
(dp1771
g69
I5
ssg70
g1765
sg63
(lp1772
g1547
asbasbasbag56
(g72
g58
NtRp1773
(dp1774
g61
(dp1775
sg70
g66
sg63
(lp1776
g56
(g77
g58
NtRp1777
(dp1778
g61
(dp1779
g81
g82
ssg70
g1773
sg63
(lp1780
S'is_restful'
p1781
asbag56
(g77
g58
NtRp1782
(dp1783
g61
(dp1784
g88
g89
ssg70
g1773
sg63
(lp1785
S':'
asbag56
(g77
g58
NtRp1786
(dp1787
g61
(dp1788
sg70
g1773
sg63
(lp1789
g56
(g57
g58
NtRp1790
(dp1791
g61
(dp1792
g69
I5
ssg70
g1786
sg63
(lp1793
g99
asbasbasbag56
(g72
g58
NtRp1794
(dp1795
g61
(dp1796
sg70
g66
sg63
(lp1797
g56
(g77
g58
NtRp1798
(dp1799
g61
(dp1800
g81
g82
ssg70
g1794
sg63
(lp1801
S'now'
p1802
asbag56
(g77
g58
NtRp1803
(dp1804
g61
(dp1805
g88
g89
ssg70
g1794
sg63
(lp1806
S':'
asbag56
(g77
g58
NtRp1807
(dp1808
g61
(dp1809
sg70
g1794
sg63
(lp1810
g56
(g57
g58
NtRp1811
(dp1812
g61
(dp1813
g69
I5
ssg70
g1807
sg63
(lp1814
S'datetime.datetime(2012, 2, 8, 7, 24, 19, 128358)'
p1815
asbasbasbag56
(g72
g58
NtRp1816
(dp1817
g61
(dp1818
sg70
g66
sg63
(lp1819
g56
(g77
g58
NtRp1820
(dp1821
g61
(dp1822
g81
g82
ssg70
g1816
sg63
(lp1823
S'post_vars'
p1824
asbag56
(g77
g58
NtRp1825
(dp1826
g61
(dp1827
g88
g89
ssg70
g1816
sg63
(lp1828
S':'
asbag56
(g77
g58
NtRp1829
(dp1830
g61
(dp1831
sg70
g1816
sg63
(lp1832
g56
(g57
g58
NtRp1833
(dp1834
g61
(dp1835
g69
I5
ssg70
g1829
sg63
(lp1836
g56
(g65
g58
NtRp1837
(dp1838
g61
(dp1839
g69
I4
ssg70
Nsg63
(lp1840
sbasbasbasbag56
(g72
g58
NtRp1841
(dp1842
g61
(dp1843
sg70
g66
sg63
(lp1844
g56
(g77
g58
NtRp1845
(dp1846
g61
(dp1847
g81
g82
ssg70
g1841
sg63
(lp1848
S'title'
p1849
asbag56
(g77
g58
NtRp1850
(dp1851
g61
(dp1852
g88
g89
ssg70
g1841
sg63
(lp1853
S':'
asbag56
(g77
g58
NtRp1854
(dp1855
g61
(dp1856
sg70
g1841
sg63
(lp1857
g56
(g57
g58
NtRp1858
(dp1859
g61
(dp1860
g69
I5
ssg70
g1854
sg63
(lp1861
S'Simpel Mail Sistem'
p1862
asbasbasbag56
(g72
g58
NtRp1863
(dp1864
g61
(dp1865
sg70
g66
sg63
(lp1866
g56
(g77
g58
NtRp1867
(dp1868
g61
(dp1869
g81
g82
ssg70
g1863
sg63
(lp1870
S'url'
p1871
asbag56
(g77
g58
NtRp1872
(dp1873
g61
(dp1874
g88
g89
ssg70
g1863
sg63
(lp1875
S':'
asbag56
(g77
g58
NtRp1876
(dp1877
g61
(dp1878
sg70
g1863
sg63
(lp1879
g56
(g57
g58
NtRp1880
(dp1881
g61
(dp1882
g69
I5
ssg70
g1876
sg63
(lp1883
S'/simpel_mail_sistem/default/index'
p1884
asbasbasbag56
(g72
g58
NtRp1885
(dp1886
g61
(dp1887
sg70
g66
sg63
(lp1888
g56
(g77
g58
NtRp1889
(dp1890
g61
(dp1891
g81
g82
ssg70
g1885
sg63
(lp1892
S'uuid'
p1893
asbag56
(g77
g58
NtRp1894
(dp1895
g61
(dp1896
g88
g89
ssg70
g1885
sg63
(lp1897
S':'
asbag56
(g77
g58
NtRp1898
(dp1899
g61
(dp1900
sg70
g1885
sg63
(lp1901
g56
(g57
g58
NtRp1902
(dp1903
g61
(dp1904
g69
I5
ssg70
g1898
sg63
(lp1905
S'simpel_mail_sistem/127.0.0.1.2012-02-08.07-24-19.0435e75d-7092-4d4a-a022-9e2cebdc3477'
p1906
asbasbasbag56
(g72
g58
NtRp1907
(dp1908
g61
(dp1909
sg70
g66
sg63
(lp1910
g56
(g77
g58
NtRp1911
(dp1912
g61
(dp1913
g81
g82
ssg70
g1907
sg63
(lp1914
S'vars'
p1915
asbag56
(g77
g58
NtRp1916
(dp1917
g61
(dp1918
g88
g89
ssg70
g1907
sg63
(lp1919
S':'
asbag56
(g77
g58
NtRp1920
(dp1921
g61
(dp1922
sg70
g1907
sg63
(lp1923
g56
(g57
g58
NtRp1924
(dp1925
g61
(dp1926
g69
I5
ssg70
g1920
sg63
(lp1927
g56
(g65
g58
NtRp1928
(dp1929
g61
(dp1930
g69
I4
ssg70
Nsg63
(lp1931
sbasbasbasbag56
(g72
g58
NtRp1932
(dp1933
g61
(dp1934
sg70
g66
sg63
(lp1935
g56
(g77
g58
NtRp1936
(dp1937
g61
(dp1938
g81
g82
ssg70
g1932
sg63
(lp1939
S'wsgi'
p1940
asbag56
(g77
g58
NtRp1941
(dp1942
g61
(dp1943
g88
g89
ssg70
g1932
sg63
(lp1944
S':'
asbag56
(g77
g58
NtRp1945
(dp1946
g61
(dp1947
sg70
g1932
sg63
(lp1948
g56
(g57
g58
NtRp1949
(dp1950
g61
(dp1951
g69
I5
ssg70
g1945
sg63
(lp1952
g56
(g65
g58
NtRp1953
(dp1954
g61
(dp1955
g69
I4
ssg70
Nsg63
(lp1956
g56
(g72
g58
NtRp1957
(dp1958
g61
(dp1959
sg70
g1953
sg63
(lp1960
g56
(g77
g58
NtRp1961
(dp1962
g61
(dp1963
g81
g82
ssg70
g1957
sg63
(lp1964
S'environ'
p1965
asbag56
(g77
g58
NtRp1966
(dp1967
g61
(dp1968
g88
g89
ssg70
g1957
sg63
(lp1969
S':'
asbag56
(g77
g58
NtRp1970
(dp1971
g61
(dp1972
sg70
g1957
sg63
(lp1973
g56
(g57
g58
NtRp1974
(dp1975
g61
(dp1976
g69
I4
ssg70
g1970
sg63
(lp1977
g56
(g65
g58
NtRp1978
(dp1979
g61
(dp1980
g69
I3
ssg70
Nsg63
(lp1981
g56
(g72
g58
NtRp1982
(dp1983
g61
(dp1984
sg70
g1978
sg63
(lp1985
g56
(g77
g58
NtRp1986
(dp1987
g61
(dp1988
g81
g82
ssg70
g1982
sg63
(lp1989
S'HTTP_ACCEPT'
p1990
asbag56
(g77
g58
NtRp1991
(dp1992
g61
(dp1993
g88
g89
ssg70
g1982
sg63
(lp1994
S':'
asbag56
(g77
g58
NtRp1995
(dp1996
g61
(dp1997
sg70
g1982
sg63
(lp1998
g56
(g57
g58
NtRp1999
(dp2000
g61
(dp2001
g69
I3
ssg70
g1995
sg63
(lp2002
g1002
asbasbasbag56
(g72
g58
NtRp2003
(dp2004
g61
(dp2005
sg70
g1978
sg63
(lp2006
g56
(g77
g58
NtRp2007
(dp2008
g61
(dp2009
g81
g82
ssg70
g2003
sg63
(lp2010
S'HTTP_ACCEPT_CHARSET'
p2011
asbag56
(g77
g58
NtRp2012
(dp2013
g61
(dp2014
g88
g89
ssg70
g2003
sg63
(lp2015
S':'
asbag56
(g77
g58
NtRp2016
(dp2017
g61
(dp2018
sg70
g2003
sg63
(lp2019
g56
(g57
g58
NtRp2020
(dp2021
g61
(dp2022
g69
I3
ssg70
g2016
sg63
(lp2023
g1024
asbasbasbag56
(g72
g58
NtRp2024
(dp2025
g61
(dp2026
sg70
g1978
sg63
(lp2027
g56
(g77
g58
NtRp2028
(dp2029
g61
(dp2030
g81
g82
ssg70
g2024
sg63
(lp2031
S'HTTP_ACCEPT_ENCODING'
p2032
asbag56
(g77
g58
NtRp2033
(dp2034
g61
(dp2035
g88
g89
ssg70
g2024
sg63
(lp2036
S':'
asbag56
(g77
g58
NtRp2037
(dp2038
g61
(dp2039
sg70
g2024
sg63
(lp2040
g56
(g57
g58
NtRp2041
(dp2042
g61
(dp2043
g69
I3
ssg70
g2037
sg63
(lp2044
g1046
asbasbasbag56
(g72
g58
NtRp2045
(dp2046
g61
(dp2047
sg70
g1978
sg63
(lp2048
g56
(g77
g58
NtRp2049
(dp2050
g61
(dp2051
g81
g82
ssg70
g2045
sg63
(lp2052
S'HTTP_ACCEPT_LANGUAGE'
p2053
asbag56
(g77
g58
NtRp2054
(dp2055
g61
(dp2056
g88
g89
ssg70
g2045
sg63
(lp2057
S':'
asbag56
(g77
g58
NtRp2058
(dp2059
g61
(dp2060
sg70
g2045
sg63
(lp2061
g56
(g57
g58
NtRp2062
(dp2063
g61
(dp2064
g69
I3
ssg70
g2058
sg63
(lp2065
g1068
asbasbasbag56
(g72
g58
NtRp2066
(dp2067
g61
(dp2068
sg70
g1978
sg63
(lp2069
g56
(g77
g58
NtRp2070
(dp2071
g61
(dp2072
g81
g82
ssg70
g2066
sg63
(lp2073
S'HTTP_CONNECTION'
p2074
asbag56
(g77
g58
NtRp2075
(dp2076
g61
(dp2077
g88
g89
ssg70
g2066
sg63
(lp2078
S':'
asbag56
(g77
g58
NtRp2079
(dp2080
g61
(dp2081
sg70
g2066
sg63
(lp2082
g56
(g57
g58
NtRp2083
(dp2084
g61
(dp2085
g69
I3
ssg70
g2079
sg63
(lp2086
g1090
asbasbasbag56
(g72
g58
NtRp2087
(dp2088
g61
(dp2089
sg70
g1978
sg63
(lp2090
g56
(g77
g58
NtRp2091
(dp2092
g61
(dp2093
g81
g82
ssg70
g2087
sg63
(lp2094
S'HTTP_COOKIE'
p2095
asbag56
(g77
g58
NtRp2096
(dp2097
g61
(dp2098
g88
g89
ssg70
g2087
sg63
(lp2099
S':'
asbag56
(g77
g58
NtRp2100
(dp2101
g61
(dp2102
sg70
g2087
sg63
(lp2103
g56
(g57
g58
NtRp2104
(dp2105
g61
(dp2106
g69
I3
ssg70
g2100
sg63
(lp2107
g1112
asbasbasbag56
(g72
g58
NtRp2108
(dp2109
g61
(dp2110
sg70
g1978
sg63
(lp2111
g56
(g77
g58
NtRp2112
(dp2113
g61
(dp2114
g81
g82
ssg70
g2108
sg63
(lp2115
S'HTTP_HOST'
p2116
asbag56
(g77
g58
NtRp2117
(dp2118
g61
(dp2119
g88
g89
ssg70
g2108
sg63
(lp2120
S':'
asbag56
(g77
g58
NtRp2121
(dp2122
g61
(dp2123
sg70
g2108
sg63
(lp2124
g56
(g57
g58
NtRp2125
(dp2126
g61
(dp2127
g69
I3
ssg70
g2121
sg63
(lp2128
g1134
asbasbasbag56
(g72
g58
NtRp2129
(dp2130
g61
(dp2131
sg70
g1978
sg63
(lp2132
g56
(g77
g58
NtRp2133
(dp2134
g61
(dp2135
g81
g82
ssg70
g2129
sg63
(lp2136
S'HTTP_USER_AGENT'
p2137
asbag56
(g77
g58
NtRp2138
(dp2139
g61
(dp2140
g88
g89
ssg70
g2129
sg63
(lp2141
S':'
asbag56
(g77
g58
NtRp2142
(dp2143
g61
(dp2144
sg70
g2129
sg63
(lp2145
g56
(g57
g58
NtRp2146
(dp2147
g61
(dp2148
g69
I3
ssg70
g2142
sg63
(lp2149
g1156
asbasbasbag56
(g72
g58
NtRp2150
(dp2151
g61
(dp2152
sg70
g1978
sg63
(lp2153
g56
(g77
g58
NtRp2154
(dp2155
g61
(dp2156
g81
g82
ssg70
g2150
sg63
(lp2157
S'PATH_INFO'
p2158
asbag56
(g77
g58
NtRp2159
(dp2160
g61
(dp2161
g88
g89
ssg70
g2150
sg63
(lp2162
S':'
asbag56
(g77
g58
NtRp2163
(dp2164
g61
(dp2165
sg70
g2150
sg63
(lp2166
g56
(g57
g58
NtRp2167
(dp2168
g61
(dp2169
g69
I3
ssg70
g2163
sg63
(lp2170
g1178
asbasbasbag56
(g72
g58
NtRp2171
(dp2172
g61
(dp2173
sg70
g1978
sg63
(lp2174
g56
(g77
g58
NtRp2175
(dp2176
g61
(dp2177
g81
g82
ssg70
g2171
sg63
(lp2178
S'QUERY_STRING'
p2179
asbag56
(g77
g58
NtRp2180
(dp2181
g61
(dp2182
g88
g89
ssg70
g2171
sg63
(lp2183
S':'
asbag56
(g77
g58
NtRp2184
(dp2185
g61
(dp2186
sg70
g2171
sg63
(lp2187
g56
(g57
g58
NtRp2188
(dp2189
g61
(dp2190
g69
I3
ssg70
g2184
sg63
(lp2191
S''
asbasbasbag56
(g72
g58
NtRp2192
(dp2193
g61
(dp2194
sg70
g1978
sg63
(lp2195
g56
(g77
g58
NtRp2196
(dp2197
g61
(dp2198
g81
g82
ssg70
g2192
sg63
(lp2199
S'REMOTE_ADDR'
p2200
asbag56
(g77
g58
NtRp2201
(dp2202
g61
(dp2203
g88
g89
ssg70
g2192
sg63
(lp2204
S':'
asbag56
(g77
g58
NtRp2205
(dp2206
g61
(dp2207
sg70
g2192
sg63
(lp2208
g56
(g57
g58
NtRp2209
(dp2210
g61
(dp2211
g69
I3
ssg70
g2205
sg63
(lp2212
g189
asbasbasbag56
(g72
g58
NtRp2213
(dp2214
g61
(dp2215
sg70
g1978
sg63
(lp2216
g56
(g77
g58
NtRp2217
(dp2218
g61
(dp2219
g81
g82
ssg70
g2213
sg63
(lp2220
S'REMOTE_PORT'
p2221
asbag56
(g77
g58
NtRp2222
(dp2223
g61
(dp2224
g88
g89
ssg70
g2213
sg63
(lp2225
S':'
asbag56
(g77
g58
NtRp2226
(dp2227
g61
(dp2228
sg70
g2213
sg63
(lp2229
g56
(g57
g58
NtRp2230
(dp2231
g61
(dp2232
g69
I3
ssg70
g2226
sg63
(lp2233
g1242
asbasbasbag56
(g72
g58
NtRp2234
(dp2235
g61
(dp2236
sg70
g1978
sg63
(lp2237
g56
(g77
g58
NtRp2238
(dp2239
g61
(dp2240
g81
g82
ssg70
g2234
sg63
(lp2241
S'REQUEST_METHOD'
p2242
asbag56
(g77
g58
NtRp2243
(dp2244
g61
(dp2245
g88
g89
ssg70
g2234
sg63
(lp2246
S':'
asbag56
(g77
g58
NtRp2247
(dp2248
g61
(dp2249
sg70
g2234
sg63
(lp2250
g56
(g57
g58
NtRp2251
(dp2252
g61
(dp2253
g69
I3
ssg70
g2247
sg63
(lp2254
g1264
asbasbasbag56
(g72
g58
NtRp2255
(dp2256
g61
(dp2257
sg70
g1978
sg63
(lp2258
g56
(g77
g58
NtRp2259
(dp2260
g61
(dp2261
g81
g82
ssg70
g2255
sg63
(lp2262
S'SCRIPT_NAME'
p2263
asbag56
(g77
g58
NtRp2264
(dp2265
g61
(dp2266
g88
g89
ssg70
g2255
sg63
(lp2267
S':'
asbag56
(g77
g58
NtRp2268
(dp2269
g61
(dp2270
sg70
g2255
sg63
(lp2271
g56
(g57
g58
NtRp2272
(dp2273
g61
(dp2274
g69
I3
ssg70
g2268
sg63
(lp2275
S''
asbasbasbag56
(g72
g58
NtRp2276
(dp2277
g61
(dp2278
sg70
g1978
sg63
(lp2279
g56
(g77
g58
NtRp2280
(dp2281
g61
(dp2282
g81
g82
ssg70
g2276
sg63
(lp2283
S'SERVER_NAME'
p2284
asbag56
(g77
g58
NtRp2285
(dp2286
g61
(dp2287
g88
g89
ssg70
g2276
sg63
(lp2288
S':'
asbag56
(g77
g58
NtRp2289
(dp2290
g61
(dp2291
sg70
g2276
sg63
(lp2292
g56
(g57
g58
NtRp2293
(dp2294
g61
(dp2295
g69
I3
ssg70
g2289
sg63
(lp2296
g1307
asbasbasbag56
(g72
g58
NtRp2297
(dp2298
g61
(dp2299
sg70
g1978
sg63
(lp2300
g56
(g77
g58
NtRp2301
(dp2302
g61
(dp2303
g81
g82
ssg70
g2297
sg63
(lp2304
S'SERVER_PORT'
p2305
asbag56
(g77
g58
NtRp2306
(dp2307
g61
(dp2308
g88
g89
ssg70
g2297
sg63
(lp2309
S':'
asbag56
(g77
g58
NtRp2310
(dp2311
g61
(dp2312
sg70
g2297
sg63
(lp2313
g56
(g57
g58
NtRp2314
(dp2315
g61
(dp2316
g69
I3
ssg70
g2310
sg63
(lp2317
g1329
asbasbasbag56
(g72
g58
NtRp2318
(dp2319
g61
(dp2320
sg70
g1978
sg63
(lp2321
g56
(g77
g58
NtRp2322
(dp2323
g61
(dp2324
g81
g82
ssg70
g2318
sg63
(lp2325
S'SERVER_PROTOCOL'
p2326
asbag56
(g77
g58
NtRp2327
(dp2328
g61
(dp2329
g88
g89
ssg70
g2318
sg63
(lp2330
S':'
asbag56
(g77
g58
NtRp2331
(dp2332
g61
(dp2333
sg70
g2318
sg63
(lp2334
g56
(g57
g58
NtRp2335
(dp2336
g61
(dp2337
g69
I3
ssg70
g2331
sg63
(lp2338
g1351
asbasbasbag56
(g72
g58
NtRp2339
(dp2340
g61
(dp2341
sg70
g1978
sg63
(lp2342
g56
(g77
g58
NtRp2343
(dp2344
g61
(dp2345
g81
g82
ssg70
g2339
sg63
(lp2346
S'SERVER_SOFTWARE'
p2347
asbag56
(g77
g58
NtRp2348
(dp2349
g61
(dp2350
g88
g89
ssg70
g2339
sg63
(lp2351
S':'
asbag56
(g77
g58
NtRp2352
(dp2353
g61
(dp2354
sg70
g2339
sg63
(lp2355
g56
(g57
g58
NtRp2356
(dp2357
g61
(dp2358
g69
I3
ssg70
g2352
sg63
(lp2359
g1373
asbasbasbag56
(g72
g58
NtRp2360
(dp2361
g61
(dp2362
sg70
g1978
sg63
(lp2363
g56
(g77
g58
NtRp2364
(dp2365
g61
(dp2366
g81
g82
ssg70
g2360
sg63
(lp2367
S'wsgi.errors'
p2368
asbag56
(g77
g58
NtRp2369
(dp2370
g61
(dp2371
g88
g89
ssg70
g2360
sg63
(lp2372
S':'
asbag56
(g77
g58
NtRp2373
(dp2374
g61
(dp2375
sg70
g2360
sg63
(lp2376
g56
(g57
g58
NtRp2377
(dp2378
g61
(dp2379
g69
I3
ssg70
g2373
sg63
(lp2380
S"<open file '<stderr>', mode 'w' at 0x7f426b61b1e0>"
p2381
asbasbasbag56
(g72
g58
NtRp2382
(dp2383
g61
(dp2384
sg70
g1978
sg63
(lp2385
g56
(g77
g58
NtRp2386
(dp2387
g61
(dp2388
g81
g82
ssg70
g2382
sg63
(lp2389
S'wsgi.file_wrapper'
p2390
asbag56
(g77
g58
NtRp2391
(dp2392
g61
(dp2393
g88
g89
ssg70
g2382
sg63
(lp2394
S':'
asbag56
(g77
g58
NtRp2395
(dp2396
g61
(dp2397
sg70
g2382
sg63
(lp2398
g56
(g57
g58
NtRp2399
(dp2400
g61
(dp2401
g69
I3
ssg70
g2395
sg63
(lp2402
S'<class gluon.rocket.FileWrapper at 0x23a67d0>'
p2403
asbasbasbag56
(g72
g58
NtRp2404
(dp2405
g61
(dp2406
sg70
g1978
sg63
(lp2407
g56
(g77
g58
NtRp2408
(dp2409
g61
(dp2410
g81
g82
ssg70
g2404
sg63
(lp2411
S'wsgi.input'
p2412
asbag56
(g77
g58
NtRp2413
(dp2414
g61
(dp2415
g88
g89
ssg70
g2404
sg63
(lp2416
S':'
asbag56
(g77
g58
NtRp2417
(dp2418
g61
(dp2419
sg70
g2404
sg63
(lp2420
g56
(g57
g58
NtRp2421
(dp2422
g61
(dp2423
g69
I3
ssg70
g2417
sg63
(lp2424
S'<cStringIO.StringO object at 0x3037340>'
p2425
asbasbasbag56
(g72
g58
NtRp2426
(dp2427
g61
(dp2428
sg70
g1978
sg63
(lp2429
g56
(g77
g58
NtRp2430
(dp2431
g61
(dp2432
g81
g82
ssg70
g2426
sg63
(lp2433
S'wsgi.multiprocess'
p2434
asbag56
(g77
g58
NtRp2435
(dp2436
g61
(dp2437
g88
g89
ssg70
g2426
sg63
(lp2438
S':'
asbag56
(g77
g58
NtRp2439
(dp2440
g61
(dp2441
sg70
g2426
sg63
(lp2442
g56
(g57
g58
NtRp2443
(dp2444
g61
(dp2445
g69
I3
ssg70
g2439
sg63
(lp2446
g99
asbasbasbag56
(g72
g58
NtRp2447
(dp2448
g61
(dp2449
sg70
g1978
sg63
(lp2450
g56
(g77
g58
NtRp2451
(dp2452
g61
(dp2453
g81
g82
ssg70
g2447
sg63
(lp2454
S'wsgi.multithread'
p2455
asbag56
(g77
g58
NtRp2456
(dp2457
g61
(dp2458
g88
g89
ssg70
g2447
sg63
(lp2459
S':'
asbag56
(g77
g58
NtRp2460
(dp2461
g61
(dp2462
sg70
g2447
sg63
(lp2463
g56
(g57
g58
NtRp2464
(dp2465
g61
(dp2466
g69
I3
ssg70
g2460
sg63
(lp2467
g1547
asbasbasbag56
(g72
g58
NtRp2468
(dp2469
g61
(dp2470
sg70
g1978
sg63
(lp2471
g56
(g77
g58
NtRp2472
(dp2473
g61
(dp2474
g81
g82
ssg70
g2468
sg63
(lp2475
S'wsgi.run_once'
p2476
asbag56
(g77
g58
NtRp2477
(dp2478
g61
(dp2479
g88
g89
ssg70
g2468
sg63
(lp2480
S':'
asbag56
(g77
g58
NtRp2481
(dp2482
g61
(dp2483
sg70
g2468
sg63
(lp2484
g56
(g57
g58
NtRp2485
(dp2486
g61
(dp2487
g69
I3
ssg70
g2481
sg63
(lp2488
g99
asbasbasbag56
(g72
g58
NtRp2489
(dp2490
g61
(dp2491
sg70
g1978
sg63
(lp2492
g56
(g77
g58
NtRp2493
(dp2494
g61
(dp2495
g81
g82
ssg70
g2489
sg63
(lp2496
S'wsgi.url_scheme'
p2497
asbag56
(g77
g58
NtRp2498
(dp2499
g61
(dp2500
g88
g89
ssg70
g2489
sg63
(lp2501
S':'
asbag56
(g77
g58
NtRp2502
(dp2503
g61
(dp2504
sg70
g2489
sg63
(lp2505
g56
(g57
g58
NtRp2506
(dp2507
g61
(dp2508
g69
I3
ssg70
g2502
sg63
(lp2509
g1590
asbasbasbag56
(g72
g58
NtRp2510
(dp2511
g61
(dp2512
sg70
g1978
sg63
(lp2513
g56
(g77
g58
NtRp2514
(dp2515
g61
(dp2516
g81
g82
ssg70
g2510
sg63
(lp2517
S'wsgi.version'
p2518
asbag56
(g77
g58
NtRp2519
(dp2520
g61
(dp2521
g88
g89
ssg70
g2510
sg63
(lp2522
S':'
asbag56
(g77
g58
NtRp2523
(dp2524
g61
(dp2525
sg70
g2510
sg63
(lp2526
g56
(g57
g58
NtRp2527
(dp2528
g61
(dp2529
g69
I3
ssg70
g2523
sg63
(lp2530
S'1'
asbasbasbasbasbasbasbasbasbasbasbasbasbsS'frames'
p2531
(lp2532
(dp2533
S'file'
p2534
S'/usr/lib/pymodules/python2.6/gluon/restricted.py'
p2535
sS'dump'
p2536
(dp2537
S'environment'
p2538
S"{'A': <class 'gluon.html.A'>, 'Auth': <class 'gluon.tools.Auth'>, 'B': <class 'gluon.html.B'>, 'BEAUTIFY': <class 'gluon.html.BEAUTIFY'>, 'BODY': <class 'gluon.html.BODY'>, 'BR': <class 'gluon.html.BR'>, 'BUTTON': <class 'gluon.html.BUTTON'>, 'CENTER': <class 'gluon.html.CENTER'>, 'CLEANUP': <class 'gluon.validators.CLEANUP'>, 'CODE': <class 'gluon.html.CODE'>, ...}"
p2539
sS'ccode'
p2540
S'<code object <module> at 0x2fc04e0, file "/home/...el_mail_sistem/views/default/index.html", line 1>'
p2541
ssS'lnum'
p2542
I192
sS'lines'
p2543
(dp2544
I192
S'        exec ccode in environment'
p2545
sI193
S'    except HTTP:'
p2546
sI194
S'        raise'
p2547
sI195
S'    except Exception:'
p2548
sI196
S'        # XXX Show exception in Wing IDE if running in debugger'
p2549
sI187
S'    try:'
p2550
sI188
S'        if type(code) == types.CodeType:'
p2551
sI189
S'            ccode = code'
p2552
sI190
S'        else:'
p2553
sI191
S'            ccode = compile2(code,layer)'
p2554
ssS'call'
p2555
S'(code=\'response.write(\\\'<!DOCTYPE html>\\\\n<html lang="\\\', ...    -->    \\\\n  </body>\\\\n</html>\\\\n\\\', escape=False)\', environment={\'A\': <class \'gluon.html.A\'>, \'Auth\': <class \'gluon.tools.Auth\'>, \'B\': <class \'gluon.html.B\'>, \'BEAUTIFY\': <class \'gluon.html.BEAUTIFY\'>, \'BODY\': <class \'gluon.html.BODY\'>, \'BR\': <class \'gluon.html.BR\'>, \'BUTTON\': <class \'gluon.html.BUTTON\'>, \'CENTER\': <class \'gluon.html.CENTER\'>, \'CLEANUP\': <class \'gluon.validators.CLEANUP\'>, \'CODE\': <class \'gluon.html.CODE\'>, ...}, layer=\'/home/umum/web2py/applications/simpel_mail_sistem/views/default/index.html\')'
p2556
sS'func'
p2557
S'restricted'
p2558
sa(dp2559
g2534
S'/home/umum/web2py/applications/simpel_mail_sistem/views/default/index.html'
p2560
sg2536
(dp2561
sg2542
I103
sg2543
(dp2562
I96
S'    pass'
p2563
sI97
S'response.write(\'\\n\\n      <!-- content -->\\n      <div id="content" \', escape=False)'
p2564
sI98
S'response.write(XML(style_content))'
p2565
sI99
S"response.write(' >\\n        ', escape=False)"
p2566
sI100
S"response.write('\\n\\n<hr />\\n<h2>', escape=False)"
p2567
sI101
S'response.write(T("Simpel Mail Sistem"))'
p2568
sI102
S"response.write('</h2>\\n', escape=False)"
p2569
sI103
S'response.write(auth.user.username)'
p2570
sI104
S"response.write('\\n<ul>\\n  <li>', escape=False)"
p2571
sI105
S"response.write(T('This is simpel mail system written on web2py web-based python framework'))"
p2572
sI106
S"response.write('</li>\\n  <li>', escape=False)"
p2573
sI107
S"response.write(T('Written by blackshirt@fastmail.fm'))"
p2574
sI108
S"response.write('</li>\\n  <li>', escape=False)"
p2575
sI109
S"response.write(T('This code licensed under GPLv2.0, and you can modify this application and adapt it to your needs'))"
p2576
sI110
S"response.write('</li>\\n</ul>\\n', escape=False)"
p2577
sI111
S"response.write(' \\n      </div>\\n      <!-- content -->\\n\\n      ', escape=False)"
p2578
sI112
S'if right_sidebar_enabled:'
p2579
sI113
S'    response.write(\'\\n          <div id="right_sidebar" \', escape=False)'
p2580
sI94
S"    response.write('Content Left Sidebar', escape=False)"
p2581
sI95
S"    response.write('       \\n            </div>\\n          </div><!-- left_sidebar -->\\n      ', escape=False)"
p2582
ssg2555
S'()'
p2583
sg2557
S'<module>'
p2584
sasS'pyver'
p2585
S'Python 2.6.6: /usr/bin/python'
p2586
sS'session'
p2587
g56
(g57
g58
NtRp2588
(dp2589
g61
(dp2590
sg63
(lp2591
g56
(g65
g58
NtRp2592
(dp2593
g61
(dp2594
g69
I5
ssg70
Nsg63
(lp2595
sbasbsS'etype'
p2596
S"<type 'exceptions.AttributeError'>"
p2597
sS'date'
p2598
S'Wed Feb  8 07:24:19 2012'
p2599
sS'response'
p2600
g56
(g57
g58
NtRp2601
(dp2602
g61
(dp2603
sg63
(lp2604
g56
(g65
g58
NtRp2605
(dp2606
g61
(dp2607
g69
I5
ssg70
Nsg63
(lp2608
g56
(g72
g58
NtRp2609
(dp2610
g61
(dp2611
sg70
g2605
sg63
(lp2612
g56
(g77
g58
NtRp2613
(dp2614
g61
(dp2615
g81
g82
ssg70
g2609
sg63
(lp2616
g154
asbag56
(g77
g58
NtRp2617
(dp2618
g61
(dp2619
g88
g89
ssg70
g2609
sg63
(lp2620
S':'
asbag56
(g77
g58
NtRp2621
(dp2622
g61
(dp2623
sg70
g2609
sg63
(lp2624
g56
(g57
g58
NtRp2625
(dp2626
g61
(dp2627
g69
I5
ssg70
g2621
sg63
(lp2628
S'<cStringIO.StringO object at 0x280dca8>'
p2629
asbasbasbag56
(g72
g58
NtRp2630
(dp2631
g61
(dp2632
sg70
g2605
sg63
(lp2633
g56
(g77
g58
NtRp2634
(dp2635
g61
(dp2636
g81
g82
ssg70
g2630
sg63
(lp2637
g220
asbag56
(g77
g58
NtRp2638
(dp2639
g61
(dp2640
g88
g89
ssg70
g2630
sg63
(lp2641
S':'
asbag56
(g77
g58
NtRp2642
(dp2643
g61
(dp2644
sg70
g2630
sg63
(lp2645
g56
(g57
g58
NtRp2646
(dp2647
g61
(dp2648
g69
I5
ssg70
g2642
sg63
(lp2649
g56
(g65
g58
NtRp2650
(dp2651
g61
(dp2652
g69
I4
ssg70
Nsg63
(lp2653
g56
(g72
g58
NtRp2654
(dp2655
g61
(dp2656
sg70
g2650
sg63
(lp2657
g56
(g77
g58
NtRp2658
(dp2659
g61
(dp2660
g81
g82
ssg70
g2654
sg63
(lp2661
S'session_id_simpel_mail_sistem'
p2662
asbag56
(g77
g58
NtRp2663
(dp2664
g61
(dp2665
g88
g89
ssg70
g2654
sg63
(lp2666
S':'
asbag56
(g77
g58
NtRp2667
(dp2668
g61
(dp2669
sg70
g2654
sg63
(lp2670
g56
(g57
g58
NtRp2671
(dp2672
g61
(dp2673
g69
I4
ssg70
g2667
sg63
(lp2674
g56
(g65
g58
NtRp2675
(dp2676
g61
(dp2677
g69
I3
ssg70
Nsg63
(lp2678
g56
(g72
g58
NtRp2679
(dp2680
g61
(dp2681
sg70
g2675
sg63
(lp2682
g56
(g77
g58
NtRp2683
(dp2684
g61
(dp2685
g81
g82
ssg70
g2679
sg63
(lp2686
g270
asbag56
(g77
g58
NtRp2687
(dp2688
g61
(dp2689
g88
g89
ssg70
g2679
sg63
(lp2690
S':'
asbag56
(g77
g58
NtRp2691
(dp2692
g61
(dp2693
sg70
g2679
sg63
(lp2694
g56
(g57
g58
NtRp2695
(dp2696
g61
(dp2697
g69
I3
ssg70
g2691
sg63
(lp2698
S''
asbasbasbag56
(g72
g58
NtRp2699
(dp2700
g61
(dp2701
sg70
g2675
sg63
(lp2702
g56
(g77
g58
NtRp2703
(dp2704
g61
(dp2705
g81
g82
ssg70
g2699
sg63
(lp2706
g291
asbag56
(g77
g58
NtRp2707
(dp2708
g61
(dp2709
g88
g89
ssg70
g2699
sg63
(lp2710
S':'
asbag56
(g77
g58
NtRp2711
(dp2712
g61
(dp2713
sg70
g2699
sg63
(lp2714
g56
(g57
g58
NtRp2715
(dp2716
g61
(dp2717
g69
I3
ssg70
g2711
sg63
(lp2718
S''
asbasbasbag56
(g72
g58
NtRp2719
(dp2720
g61
(dp2721
sg70
g2675
sg63
(lp2722
g56
(g77
g58
NtRp2723
(dp2724
g61
(dp2725
g81
g82
ssg70
g2719
sg63
(lp2726
g312
asbag56
(g77
g58
NtRp2727
(dp2728
g61
(dp2729
g88
g89
ssg70
g2719
sg63
(lp2730
S':'
asbag56
(g77
g58
NtRp2731
(dp2732
g61
(dp2733
sg70
g2719
sg63
(lp2734
g56
(g57
g58
NtRp2735
(dp2736
g61
(dp2737
g69
I3
ssg70
g2731
sg63
(lp2738
S''
asbasbasbag56
(g72
g58
NtRp2739
(dp2740
g61
(dp2741
sg70
g2675
sg63
(lp2742
g56
(g77
g58
NtRp2743
(dp2744
g61
(dp2745
g81
g82
ssg70
g2739
sg63
(lp2746
g333
asbag56
(g77
g58
NtRp2747
(dp2748
g61
(dp2749
g88
g89
ssg70
g2739
sg63
(lp2750
S':'
asbag56
(g77
g58
NtRp2751
(dp2752
g61
(dp2753
sg70
g2739
sg63
(lp2754
g56
(g57
g58
NtRp2755
(dp2756
g61
(dp2757
g69
I3
ssg70
g2751
sg63
(lp2758
S''
asbasbasbag56
(g72
g58
NtRp2759
(dp2760
g61
(dp2761
sg70
g2675
sg63
(lp2762
g56
(g77
g58
NtRp2763
(dp2764
g61
(dp2765
g81
g82
ssg70
g2759
sg63
(lp2766
g354
asbag56
(g77
g58
NtRp2767
(dp2768
g61
(dp2769
g88
g89
ssg70
g2759
sg63
(lp2770
S':'
asbag56
(g77
g58
NtRp2771
(dp2772
g61
(dp2773
sg70
g2759
sg63
(lp2774
g56
(g57
g58
NtRp2775
(dp2776
g61
(dp2777
g69
I3
ssg70
g2771
sg63
(lp2778
S''
asbasbasbag56
(g72
g58
NtRp2779
(dp2780
g61
(dp2781
sg70
g2675
sg63
(lp2782
g56
(g77
g58
NtRp2783
(dp2784
g61
(dp2785
g81
g82
ssg70
g2779
sg63
(lp2786
g375
asbag56
(g77
g58
NtRp2787
(dp2788
g61
(dp2789
g88
g89
ssg70
g2779
sg63
(lp2790
S':'
asbag56
(g77
g58
NtRp2791
(dp2792
g61
(dp2793
sg70
g2779
sg63
(lp2794
g56
(g57
g58
NtRp2795
(dp2796
g61
(dp2797
g69
I3
ssg70
g2791
sg63
(lp2798
S'/'
asbasbasbag56
(g72
g58
NtRp2799
(dp2800
g61
(dp2801
sg70
g2675
sg63
(lp2802
g56
(g77
g58
NtRp2803
(dp2804
g61
(dp2805
g81
g82
ssg70
g2799
sg63
(lp2806
g396
asbag56
(g77
g58
NtRp2807
(dp2808
g61
(dp2809
g88
g89
ssg70
g2799
sg63
(lp2810
S':'
asbag56
(g77
g58
NtRp2811
(dp2812
g61
(dp2813
sg70
g2799
sg63
(lp2814
g56
(g57
g58
NtRp2815
(dp2816
g61
(dp2817
g69
I3
ssg70
g2811
sg63
(lp2818
S''
asbasbasbag56
(g72
g58
NtRp2819
(dp2820
g61
(dp2821
sg70
g2675
sg63
(lp2822
g56
(g77
g58
NtRp2823
(dp2824
g61
(dp2825
g81
g82
ssg70
g2819
sg63
(lp2826
g417
asbag56
(g77
g58
NtRp2827
(dp2828
g61
(dp2829
g88
g89
ssg70
g2819
sg63
(lp2830
S':'
asbag56
(g77
g58
NtRp2831
(dp2832
g61
(dp2833
sg70
g2819
sg63
(lp2834
g56
(g57
g58
NtRp2835
(dp2836
g61
(dp2837
g69
I3
ssg70
g2831
sg63
(lp2838
S''
asbasbasbasbasbasbasbasbasbasbasbag56
(g72
g58
NtRp2839
(dp2840
g61
(dp2841
sg70
g2605
sg63
(lp2842
g56
(g77
g58
NtRp2843
(dp2844
g61
(dp2845
g81
g82
ssg70
g2839
sg63
(lp2846
S'files'
p2847
asbag56
(g77
g58
NtRp2848
(dp2849
g61
(dp2850
g88
g89
ssg70
g2839
sg63
(lp2851
S':'
asbag56
(g77
g58
NtRp2852
(dp2853
g61
(dp2854
sg70
g2839
sg63
(lp2855
g56
(g57
g58
NtRp2856
(dp2857
g61
(dp2858
g69
I5
ssg70
g2852
sg63
(lp2859
g56
(g65
g58
NtRp2860
(dp2861
g61
(dp2862
g69
I4
ssg70
Nsg63
(lp2863
g56
(g72
g58
NtRp2864
(dp2865
g61
(dp2866
sg70
g2860
sg63
(lp2867
g56
(g77
g58
NtRp2868
(dp2869
g61
(dp2870
sg70
g2864
sg63
(lp2871
g56
(g57
g58
NtRp2872
(dp2873
g61
(dp2874
g69
I4
ssg70
g2868
sg63
(lp2875
S'/simpel_mail_sistem/static/js/jquery.js'
p2876
asbasbasbag56
(g72
g58
NtRp2877
(dp2878
g61
(dp2879
sg70
g2860
sg63
(lp2880
g56
(g77
g58
NtRp2881
(dp2882
g61
(dp2883
sg70
g2877
sg63
(lp2884
g56
(g57
g58
NtRp2885
(dp2886
g61
(dp2887
g69
I4
ssg70
g2881
sg63
(lp2888
S'/simpel_mail_sistem/static/css/calendar.css'
p2889
asbasbasbag56
(g72
g58
NtRp2890
(dp2891
g61
(dp2892
sg70
g2860
sg63
(lp2893
g56
(g77
g58
NtRp2894
(dp2895
g61
(dp2896
sg70
g2890
sg63
(lp2897
g56
(g57
g58
NtRp2898
(dp2899
g61
(dp2900
g69
I4
ssg70
g2894
sg63
(lp2901
S'/simpel_mail_sistem/static/js/calendar.js'
p2902
asbasbasbag56
(g72
g58
NtRp2903
(dp2904
g61
(dp2905
sg70
g2860
sg63
(lp2906
g56
(g77
g58
NtRp2907
(dp2908
g61
(dp2909
sg70
g2903
sg63
(lp2910
g56
(g57
g58
NtRp2911
(dp2912
g61
(dp2913
g69
I4
ssg70
g2907
sg63
(lp2914
S'/simpel_mail_sistem/static/css/base.css'
p2915
asbasbasbag56
(g72
g58
NtRp2916
(dp2917
g61
(dp2918
sg70
g2860
sg63
(lp2919
g56
(g77
g58
NtRp2920
(dp2921
g61
(dp2922
sg70
g2916
sg63
(lp2923
g56
(g57
g58
NtRp2924
(dp2925
g61
(dp2926
g69
I4
ssg70
g2920
sg63
(lp2927
S'/simpel_mail_sistem/static/css/superfish.css'
p2928
asbasbasbag56
(g72
g58
NtRp2929
(dp2930
g61
(dp2931
sg70
g2860
sg63
(lp2932
g56
(g77
g58
NtRp2933
(dp2934
g61
(dp2935
sg70
g2929
sg63
(lp2936
g56
(g57
g58
NtRp2937
(dp2938
g61
(dp2939
g69
I4
ssg70
g2933
sg63
(lp2940
S'/simpel_mail_sistem/static/js/superfish.js'
p2941
asbasbasbasbasbasbasbag56
(g72
g58
NtRp2942
(dp2943
g61
(dp2944
sg70
g2605
sg63
(lp2945
g56
(g77
g58
NtRp2946
(dp2947
g61
(dp2948
g81
g82
ssg70
g2942
sg63
(lp2949
S'flash'
p2950
asbag56
(g77
g58
NtRp2951
(dp2952
g61
(dp2953
g88
g89
ssg70
g2942
sg63
(lp2954
S':'
asbag56
(g77
g58
NtRp2955
(dp2956
g61
(dp2957
sg70
g2942
sg63
(lp2958
g56
(g57
g58
NtRp2959
(dp2960
g61
(dp2961
g69
I5
ssg70
g2955
sg63
(lp2962
S''
asbasbasbag56
(g72
g58
NtRp2963
(dp2964
g61
(dp2965
sg70
g2605
sg63
(lp2966
g56
(g77
g58
NtRp2967
(dp2968
g61
(dp2969
g81
g82
ssg70
g2963
sg63
(lp2970
S'generic_patterns'
p2971
asbag56
(g77
g58
NtRp2972
(dp2973
g61
(dp2974
g88
g89
ssg70
g2963
sg63
(lp2975
S':'
asbag56
(g77
g58
NtRp2976
(dp2977
g61
(dp2978
sg70
g2963
sg63
(lp2979
g56
(g57
g58
NtRp2980
(dp2981
g61
(dp2982
g69
I5
ssg70
g2976
sg63
(lp2983
g56
(g65
g58
NtRp2984
(dp2985
g61
(dp2986
g69
I4
ssg70
Nsg63
(lp2987
g56
(g72
g58
NtRp2988
(dp2989
g61
(dp2990
sg70
g2984
sg63
(lp2991
g56
(g77
g58
NtRp2992
(dp2993
g61
(dp2994
sg70
g2988
sg63
(lp2995
g56
(g57
g58
NtRp2996
(dp2997
g61
(dp2998
g69
I4
ssg70
g2992
sg63
(lp2999
S'*'
asbasbasbasbasbasbasbag56
(g72
g58
NtRp3000
(dp3001
g61
(dp3002
sg70
g2605
sg63
(lp3003
g56
(g77
g58
NtRp3004
(dp3005
g61
(dp3006
g81
g82
ssg70
g3000
sg63
(lp3007
S'headers'
p3008
asbag56
(g77
g58
NtRp3009
(dp3010
g61
(dp3011
g88
g89
ssg70
g3000
sg63
(lp3012
S':'
asbag56
(g77
g58
NtRp3013
(dp3014
g61
(dp3015
sg70
g3000
sg63
(lp3016
g56
(g57
g58
NtRp3017
(dp3018
g61
(dp3019
g69
I5
ssg70
g3013
sg63
(lp3020
g56
(g65
g58
NtRp3021
(dp3022
g61
(dp3023
g69
I4
ssg70
Nsg63
(lp3024
g56
(g72
g58
NtRp3025
(dp3026
g61
(dp3027
sg70
g3021
sg63
(lp3028
g56
(g77
g58
NtRp3029
(dp3030
g61
(dp3031
g81
g82
ssg70
g3025
sg63
(lp3032
S'Cache-Control'
p3033
asbag56
(g77
g58
NtRp3034
(dp3035
g61
(dp3036
g88
g89
ssg70
g3025
sg63
(lp3037
S':'
asbag56
(g77
g58
NtRp3038
(dp3039
g61
(dp3040
sg70
g3025
sg63
(lp3041
g56
(g57
g58
NtRp3042
(dp3043
g61
(dp3044
g69
I4
ssg70
g3038
sg63
(lp3045
S'no-store, no-cache, must-revalidate, post-check=0, pre-check=0'
p3046
asbasbasbag56
(g72
g58
NtRp3047
(dp3048
g61
(dp3049
sg70
g3021
sg63
(lp3050
g56
(g77
g58
NtRp3051
(dp3052
g61
(dp3053
g81
g82
ssg70
g3047
sg63
(lp3054
S'Content-Type'
p3055
asbag56
(g77
g58
NtRp3056
(dp3057
g61
(dp3058
g88
g89
ssg70
g3047
sg63
(lp3059
S':'
asbag56
(g77
g58
NtRp3060
(dp3061
g61
(dp3062
sg70
g3047
sg63
(lp3063
g56
(g57
g58
NtRp3064
(dp3065
g61
(dp3066
g69
I4
ssg70
g3060
sg63
(lp3067
S'text/html; charset=utf-8'
p3068
asbasbasbag56
(g72
g58
NtRp3069
(dp3070
g61
(dp3071
sg70
g3021
sg63
(lp3072
g56
(g77
g58
NtRp3073
(dp3074
g61
(dp3075
g81
g82
ssg70
g3069
sg63
(lp3076
S'Expires'
p3077
asbag56
(g77
g58
NtRp3078
(dp3079
g61
(dp3080
g88
g89
ssg70
g3069
sg63
(lp3081
S':'
asbag56
(g77
g58
NtRp3082
(dp3083
g61
(dp3084
sg70
g3069
sg63
(lp3085
g56
(g57
g58
NtRp3086
(dp3087
g61
(dp3088
g69
I4
ssg70
g3082
sg63
(lp3089
S'Wed, 08 Feb 2012 00:24:19 GMT'
p3090
asbasbasbag56
(g72
g58
NtRp3091
(dp3092
g61
(dp3093
sg70
g3021
sg63
(lp3094
g56
(g77
g58
NtRp3095
(dp3096
g61
(dp3097
g81
g82
ssg70
g3091
sg63
(lp3098
S'Pragma'
p3099
asbag56
(g77
g58
NtRp3100
(dp3101
g61
(dp3102
g88
g89
ssg70
g3091
sg63
(lp3103
S':'
asbag56
(g77
g58
NtRp3104
(dp3105
g61
(dp3106
sg70
g3091
sg63
(lp3107
g56
(g57
g58
NtRp3108
(dp3109
g61
(dp3110
g69
I4
ssg70
g3104
sg63
(lp3111
S'no-cache'
p3112
asbasbasbag56
(g72
g58
NtRp3113
(dp3114
g61
(dp3115
sg70
g3021
sg63
(lp3116
g56
(g77
g58
NtRp3117
(dp3118
g61
(dp3119
g81
g82
ssg70
g3113
sg63
(lp3120
S'X-Powered-By'
p3121
asbag56
(g77
g58
NtRp3122
(dp3123
g61
(dp3124
g88
g89
ssg70
g3113
sg63
(lp3125
S':'
asbag56
(g77
g58
NtRp3126
(dp3127
g61
(dp3128
sg70
g3113
sg63
(lp3129
g56
(g57
g58
NtRp3130
(dp3131
g61
(dp3132
g69
I4
ssg70
g3126
sg63
(lp3133
S'web2py'
p3134
asbasbasbasbasbasbasbag56
(g72
g58
NtRp3135
(dp3136
g61
(dp3137
sg70
g2605
sg63
(lp3138
g56
(g77
g58
NtRp3139
(dp3140
g61
(dp3141
g81
g82
ssg70
g3135
sg63
(lp3142
S'menu'
p3143
asbag56
(g77
g58
NtRp3144
(dp3145
g61
(dp3146
g88
g89
ssg70
g3135
sg63
(lp3147
S':'
asbag56
(g77
g58
NtRp3148
(dp3149
g61
(dp3150
sg70
g3135
sg63
(lp3151
g56
(g57
g58
NtRp3152
(dp3153
g61
(dp3154
g69
I5
ssg70
g3148
sg63
(lp3155
g56
(g65
g58
NtRp3156
(dp3157
g61
(dp3158
g69
I4
ssg70
Nsg63
(lp3159
g56
(g72
g58
NtRp3160
(dp3161
g61
(dp3162
sg70
g3156
sg63
(lp3163
g56
(g77
g58
NtRp3164
(dp3165
g61
(dp3166
sg70
g3160
sg63
(lp3167
g56
(g57
g58
NtRp3168
(dp3169
g61
(dp3170
g69
I4
ssg70
g3164
sg63
(lp3171
g56
(g65
g58
NtRp3172
(dp3173
g61
(dp3174
g69
I3
ssg70
Nsg63
(lp3175
g56
(g72
g58
NtRp3176
(dp3177
g61
(dp3178
sg70
g3172
sg63
(lp3179
g56
(g77
g58
NtRp3180
(dp3181
g61
(dp3182
sg70
g3176
sg63
(lp3183
g56
(g57
g58
NtRp3184
(dp3185
g61
(dp3186
g69
I3
ssg70
g3180
sg63
(lp3187
cgluon.languages
lazyT_unpickle
p3188
(S's\x04\x00\x00\x00Home'
tRp3189
asbasbasbag56
(g72
g58
NtRp3190
(dp3191
g61
(dp3192
sg70
g3172
sg63
(lp3193
g56
(g77
g58
NtRp3194
(dp3195
g61
(dp3196
sg70
g3190
sg63
(lp3197
g56
(g57
g58
NtRp3198
(dp3199
g61
(dp3200
g69
I3
ssg70
g3194
sg63
(lp3201
g99
asbasbasbag56
(g72
g58
NtRp3202
(dp3203
g61
(dp3204
sg70
g3172
sg63
(lp3205
g56
(g77
g58
NtRp3206
(dp3207
g61
(dp3208
sg70
g3202
sg63
(lp3209
g56
(g57
g58
NtRp3210
(dp3211
g61
(dp3212
g69
I3
ssg70
g3206
sg63
(lp3213
S'/simpel_mail_sistem/default/index'
p3214
asbasbasbag56
(g72
g58
NtRp3215
(dp3216
g61
(dp3217
sg70
g3172
sg63
(lp3218
g56
(g77
g58
NtRp3219
(dp3220
g61
(dp3221
sg70
g3215
sg63
(lp3222
g56
(g57
g58
NtRp3223
(dp3224
g61
(dp3225
g69
I3
ssg70
g3219
sg63
(lp3226
g56
(g65
g58
NtRp3227
(dp3228
g61
(dp3229
g69
I2
ssg70
Nsg63
(lp3230
sbasbasbasbasbasbasbasbag56
(g72
g58
NtRp3231
(dp3232
g61
(dp3233
sg70
g3156
sg63
(lp3234
g56
(g77
g58
NtRp3235
(dp3236
g61
(dp3237
sg70
g3231
sg63
(lp3238
g56
(g57
g58
NtRp3239
(dp3240
g61
(dp3241
g69
I4
ssg70
g3235
sg63
(lp3242
g56
(g65
g58
NtRp3243
(dp3244
g61
(dp3245
g69
I3
ssg70
Nsg63
(lp3246
g56
(g72
g58
NtRp3247
(dp3248
g61
(dp3249
sg70
g3243
sg63
(lp3250
g56
(g77
g58
NtRp3251
(dp3252
g61
(dp3253
sg70
g3247
sg63
(lp3254
g56
(g57
g58
NtRp3255
(dp3256
g61
(dp3257
g69
I3
ssg70
g3251
sg63
(lp3258
g3188
(S's\x05\x00\x00\x00Inbox'
tRp3259
asbasbasbag56
(g72
g58
NtRp3260
(dp3261
g61
(dp3262
sg70
g3243
sg63
(lp3263
g56
(g77
g58
NtRp3264
(dp3265
g61
(dp3266
sg70
g3260
sg63
(lp3267
g56
(g57
g58
NtRp3268
(dp3269
g61
(dp3270
g69
I3
ssg70
g3264
sg63
(lp3271
g99
asbasbasbag56
(g72
g58
NtRp3272
(dp3273
g61
(dp3274
sg70
g3243
sg63
(lp3275
g56
(g77
g58
NtRp3276
(dp3277
g61
(dp3278
sg70
g3272
sg63
(lp3279
g56
(g57
g58
NtRp3280
(dp3281
g61
(dp3282
g69
I3
ssg70
g3276
sg63
(lp3283
S'/simpel_mail_sistem/default/inbox'
p3284
asbasbasbag56
(g72
g58
NtRp3285
(dp3286
g61
(dp3287
sg70
g3243
sg63
(lp3288
g56
(g77
g58
NtRp3289
(dp3290
g61
(dp3291
sg70
g3285
sg63
(lp3292
g56
(g57
g58
NtRp3293
(dp3294
g61
(dp3295
g69
I3
ssg70
g3289
sg63
(lp3296
g56
(g65
g58
NtRp3297
(dp3298
g61
(dp3299
g69
I2
ssg70
Nsg63
(lp3300
sbasbasbasbasbasbasbasbag56
(g72
g58
NtRp3301
(dp3302
g61
(dp3303
sg70
g3156
sg63
(lp3304
g56
(g77
g58
NtRp3305
(dp3306
g61
(dp3307
sg70
g3301
sg63
(lp3308
g56
(g57
g58
NtRp3309
(dp3310
g61
(dp3311
g69
I4
ssg70
g3305
sg63
(lp3312
g56
(g65
g58
NtRp3313
(dp3314
g61
(dp3315
g69
I3
ssg70
Nsg63
(lp3316
g56
(g72
g58
NtRp3317
(dp3318
g61
(dp3319
sg70
g3313
sg63
(lp3320
g56
(g77
g58
NtRp3321
(dp3322
g61
(dp3323
sg70
g3317
sg63
(lp3324
g56
(g57
g58
NtRp3325
(dp3326
g61
(dp3327
g69
I3
ssg70
g3321
sg63
(lp3328
g3188
(S's\x0c\x00\x00\x00Surat Keluar'
tRp3329
asbasbasbag56
(g72
g58
NtRp3330
(dp3331
g61
(dp3332
sg70
g3313
sg63
(lp3333
g56
(g77
g58
NtRp3334
(dp3335
g61
(dp3336
sg70
g3330
sg63
(lp3337
g56
(g57
g58
NtRp3338
(dp3339
g61
(dp3340
g69
I3
ssg70
g3334
sg63
(lp3341
g99
asbasbasbag56
(g72
g58
NtRp3342
(dp3343
g61
(dp3344
sg70
g3313
sg63
(lp3345
g56
(g77
g58
NtRp3346
(dp3347
g61
(dp3348
sg70
g3342
sg63
(lp3349
g56
(g57
g58
NtRp3350
(dp3351
g61
(dp3352
g69
I3
ssg70
g3346
sg63
(lp3353
S'/simpel_mail_sistem/default/outbox'
p3354
asbasbasbag56
(g72
g58
NtRp3355
(dp3356
g61
(dp3357
sg70
g3313
sg63
(lp3358
g56
(g77
g58
NtRp3359
(dp3360
g61
(dp3361
sg70
g3355
sg63
(lp3362
g56
(g57
g58
NtRp3363
(dp3364
g61
(dp3365
g69
I3
ssg70
g3359
sg63
(lp3366
g56
(g65
g58
NtRp3367
(dp3368
g61
(dp3369
g69
I2
ssg70
Nsg63
(lp3370
sbasbasbasbasbasbasbasbag56
(g72
g58
NtRp3371
(dp3372
g61
(dp3373
sg70
g3156
sg63
(lp3374
g56
(g77
g58
NtRp3375
(dp3376
g61
(dp3377
sg70
g3371
sg63
(lp3378
g56
(g57
g58
NtRp3379
(dp3380
g61
(dp3381
g69
I4
ssg70
g3375
sg63
(lp3382
g56
(g65
g58
NtRp3383
(dp3384
g61
(dp3385
g69
I3
ssg70
Nsg63
(lp3386
g56
(g72
g58
NtRp3387
(dp3388
g61
(dp3389
sg70
g3383
sg63
(lp3390
g56
(g77
g58
NtRp3391
(dp3392
g61
(dp3393
sg70
g3387
sg63
(lp3394
g56
(g57
g58
NtRp3395
(dp3396
g61
(dp3397
g69
I3
ssg70
g3391
sg63
(lp3398
g3188
(S's\x0f\x00\x00\x00Compose Message'
tRp3399
asbasbasbag56
(g72
g58
NtRp3400
(dp3401
g61
(dp3402
sg70
g3383
sg63
(lp3403
g56
(g77
g58
NtRp3404
(dp3405
g61
(dp3406
sg70
g3400
sg63
(lp3407
g56
(g57
g58
NtRp3408
(dp3409
g61
(dp3410
g69
I3
ssg70
g3404
sg63
(lp3411
g99
asbasbasbag56
(g72
g58
NtRp3412
(dp3413
g61
(dp3414
sg70
g3383
sg63
(lp3415
g56
(g77
g58
NtRp3416
(dp3417
g61
(dp3418
sg70
g3412
sg63
(lp3419
g56
(g57
g58
NtRp3420
(dp3421
g61
(dp3422
g69
I3
ssg70
g3416
sg63
(lp3423
S'/simpel_mail_sistem/default/create'
p3424
asbasbasbag56
(g72
g58
NtRp3425
(dp3426
g61
(dp3427
sg70
g3383
sg63
(lp3428
g56
(g77
g58
NtRp3429
(dp3430
g61
(dp3431
sg70
g3425
sg63
(lp3432
g56
(g57
g58
NtRp3433
(dp3434
g61
(dp3435
g69
I3
ssg70
g3429
sg63
(lp3436
g56
(g65
g58
NtRp3437
(dp3438
g61
(dp3439
g69
I2
ssg70
Nsg63
(lp3440
sbasbasbasbasbasbasbasbasbasbasbasbag56
(g72
g58
NtRp3441
(dp3442
g61
(dp3443
sg70
g2605
sg63
(lp3444
g56
(g77
g58
NtRp3445
(dp3446
g61
(dp3447
g81
g82
ssg70
g3441
sg63
(lp3448
S'meta'
p3449
asbag56
(g77
g58
NtRp3450
(dp3451
g61
(dp3452
g88
g89
ssg70
g3441
sg63
(lp3453
S':'
asbag56
(g77
g58
NtRp3454
(dp3455
g61
(dp3456
sg70
g3441
sg63
(lp3457
g56
(g57
g58
NtRp3458
(dp3459
g61
(dp3460
g69
I5
ssg70
g3454
sg63
(lp3461
g56
(g65
g58
NtRp3462
(dp3463
g61
(dp3464
g69
I4
ssg70
Nsg63
(lp3465
g56
(g72
g58
NtRp3466
(dp3467
g61
(dp3468
sg70
g3462
sg63
(lp3469
g56
(g77
g58
NtRp3470
(dp3471
g61
(dp3472
g81
g82
ssg70
g3466
sg63
(lp3473
S'author'
p3474
asbag56
(g77
g58
NtRp3475
(dp3476
g61
(dp3477
g88
g89
ssg70
g3466
sg63
(lp3478
S':'
asbag56
(g77
g58
NtRp3479
(dp3480
g61
(dp3481
sg70
g3466
sg63
(lp3482
g56
(g57
g58
NtRp3483
(dp3484
g61
(dp3485
g69
I4
ssg70
g3479
sg63
(lp3486
S'you'
p3487
asbasbasbag56
(g72
g58
NtRp3488
(dp3489
g61
(dp3490
sg70
g3462
sg63
(lp3491
g56
(g77
g58
NtRp3492
(dp3493
g61
(dp3494
g81
g82
ssg70
g3488
sg63
(lp3495
S'copyright'
p3496
asbag56
(g77
g58
NtRp3497
(dp3498
g61
(dp3499
g88
g89
ssg70
g3488
sg63
(lp3500
S':'
asbag56
(g77
g58
NtRp3501
(dp3502
g61
(dp3503
sg70
g3488
sg63
(lp3504
g56
(g57
g58
NtRp3505
(dp3506
g61
(dp3507
g69
I4
ssg70
g3501
sg63
(lp3508
S'Copyright 2007-2010'
p3509
asbasbasbag56
(g72
g58
NtRp3510
(dp3511
g61
(dp3512
sg70
g3462
sg63
(lp3513
g56
(g77
g58
NtRp3514
(dp3515
g61
(dp3516
g81
g82
ssg70
g3510
sg63
(lp3517
S'description'
p3518
asbag56
(g77
g58
NtRp3519
(dp3520
g61
(dp3521
g88
g89
ssg70
g3510
sg63
(lp3522
S':'
asbag56
(g77
g58
NtRp3523
(dp3524
g61
(dp3525
sg70
g3510
sg63
(lp3526
g56
(g57
g58
NtRp3527
(dp3528
g61
(dp3529
g69
I4
ssg70
g3523
sg63
(lp3530
S'Free and open source full-stack enterprise framework for agile development of fast, scalable, secure and portable database-driven web-based applications. Written and programmable in Python'
p3531
asbasbasbag56
(g72
g58
NtRp3532
(dp3533
g61
(dp3534
sg70
g3462
sg63
(lp3535
g56
(g77
g58
NtRp3536
(dp3537
g61
(dp3538
g81
g82
ssg70
g3532
sg63
(lp3539
S'generator'
p3540
asbag56
(g77
g58
NtRp3541
(dp3542
g61
(dp3543
g88
g89
ssg70
g3532
sg63
(lp3544
S':'
asbag56
(g77
g58
NtRp3545
(dp3546
g61
(dp3547
sg70
g3532
sg63
(lp3548
g56
(g57
g58
NtRp3549
(dp3550
g61
(dp3551
g69
I4
ssg70
g3545
sg63
(lp3552
S'Web2py Enterprise Framework'
p3553
asbasbasbag56
(g72
g58
NtRp3554
(dp3555
g61
(dp3556
sg70
g3462
sg63
(lp3557
g56
(g77
g58
NtRp3558
(dp3559
g61
(dp3560
g81
g82
ssg70
g3554
sg63
(lp3561
S'keywords'
p3562
asbag56
(g77
g58
NtRp3563
(dp3564
g61
(dp3565
g88
g89
ssg70
g3554
sg63
(lp3566
S':'
asbag56
(g77
g58
NtRp3567
(dp3568
g61
(dp3569
sg70
g3554
sg63
(lp3570
g56
(g57
g58
NtRp3571
(dp3572
g61
(dp3573
g69
I4
ssg70
g3567
sg63
(lp3574
S'web2py, python, framework'
p3575
asbasbasbasbasbasbasbag56
(g72
g58
NtRp3576
(dp3577
g61
(dp3578
sg70
g2605
sg63
(lp3579
g56
(g77
g58
NtRp3580
(dp3581
g61
(dp3582
g81
g82
ssg70
g3576
sg63
(lp3583
S'postprocessing'
p3584
asbag56
(g77
g58
NtRp3585
(dp3586
g61
(dp3587
g88
g89
ssg70
g3576
sg63
(lp3588
S':'
asbag56
(g77
g58
NtRp3589
(dp3590
g61
(dp3591
sg70
g3576
sg63
(lp3592
g56
(g57
g58
NtRp3593
(dp3594
g61
(dp3595
g69
I5
ssg70
g3589
sg63
(lp3596
g56
(g65
g58
NtRp3597
(dp3598
g61
(dp3599
g69
I4
ssg70
Nsg63
(lp3600
sbasbasbasbag56
(g72
g58
NtRp3601
(dp3602
g61
(dp3603
sg70
g2605
sg63
(lp3604
g56
(g77
g58
NtRp3605
(dp3606
g61
(dp3607
g81
g82
ssg70
g3601
sg63
(lp3608
S'session_filename'
p3609
asbag56
(g77
g58
NtRp3610
(dp3611
g61
(dp3612
g88
g89
ssg70
g3601
sg63
(lp3613
S':'
asbag56
(g77
g58
NtRp3614
(dp3615
g61
(dp3616
sg70
g3601
sg63
(lp3617
g56
(g57
g58
NtRp3618
(dp3619
g61
(dp3620
g69
I5
ssg70
g3614
sg63
(lp3621
S'/home/umum/web2py/applications/simpel_mail_sistem/sessions/127.0.0.1-74d2ba40-9608-4f61-b446-cf872ef4b8b3'
p3622
asbasbasbag56
(g72
g58
NtRp3623
(dp3624
g61
(dp3625
sg70
g2605
sg63
(lp3626
g56
(g77
g58
NtRp3627
(dp3628
g61
(dp3629
g81
g82
ssg70
g3623
sg63
(lp3630
S'session_id'
p3631
asbag56
(g77
g58
NtRp3632
(dp3633
g61
(dp3634
g88
g89
ssg70
g3623
sg63
(lp3635
S':'
asbag56
(g77
g58
NtRp3636
(dp3637
g61
(dp3638
sg70
g3623
sg63
(lp3639
g56
(g57
g58
NtRp3640
(dp3641
g61
(dp3642
g69
I5
ssg70
g3636
sg63
(lp3643
S'127.0.0.1-74d2ba40-9608-4f61-b446-cf872ef4b8b3'
p3644
asbasbasbag56
(g72
g58
NtRp3645
(dp3646
g61
(dp3647
sg70
g2605
sg63
(lp3648
g56
(g77
g58
NtRp3649
(dp3650
g61
(dp3651
g81
g82
ssg70
g3645
sg63
(lp3652
S'session_id_name'
p3653
asbag56
(g77
g58
NtRp3654
(dp3655
g61
(dp3656
g88
g89
ssg70
g3645
sg63
(lp3657
S':'
asbag56
(g77
g58
NtRp3658
(dp3659
g61
(dp3660
sg70
g3645
sg63
(lp3661
g56
(g57
g58
NtRp3662
(dp3663
g61
(dp3664
g69
I5
ssg70
g3658
sg63
(lp3665
g2662
asbasbasbag56
(g72
g58
NtRp3666
(dp3667
g61
(dp3668
sg70
g2605
sg63
(lp3669
g56
(g77
g58
NtRp3670
(dp3671
g61
(dp3672
g81
g82
ssg70
g3666
sg63
(lp3673
S'session_new'
p3674
asbag56
(g77
g58
NtRp3675
(dp3676
g61
(dp3677
g88
g89
ssg70
g3666
sg63
(lp3678
S':'
asbag56
(g77
g58
NtRp3679
(dp3680
g61
(dp3681
sg70
g3666
sg63
(lp3682
g56
(g57
g58
NtRp3683
(dp3684
g61
(dp3685
g69
I5
ssg70
g3679
sg63
(lp3686
g1547
asbasbasbag56
(g72
g58
NtRp3687
(dp3688
g61
(dp3689
sg70
g2605
sg63
(lp3690
g56
(g77
g58
NtRp3691
(dp3692
g61
(dp3693
g81
g82
ssg70
g3687
sg63
(lp3694
S'status'
p3695
asbag56
(g77
g58
NtRp3696
(dp3697
g61
(dp3698
g88
g89
ssg70
g3687
sg63
(lp3699
S':'
asbag56
(g77
g58
NtRp3700
(dp3701
g61
(dp3702
sg70
g3687
sg63
(lp3703
g56
(g57
g58
NtRp3704
(dp3705
g61
(dp3706
g69
I5
ssg70
g3700
sg63
(lp3707
S'200'
p3708
asbasbasbag56
(g72
g58
NtRp3709
(dp3710
g61
(dp3711
sg70
g2605
sg63
(lp3712
g56
(g77
g58
NtRp3713
(dp3714
g61
(dp3715
g81
g82
ssg70
g3709
sg63
(lp3716
S'subtitle'
p3717
asbag56
(g77
g58
NtRp3718
(dp3719
g61
(dp3720
g88
g89
ssg70
g3709
sg63
(lp3721
S':'
asbag56
(g77
g58
NtRp3722
(dp3723
g61
(dp3724
sg70
g3709
sg63
(lp3725
g56
(g57
g58
NtRp3726
(dp3727
g61
(dp3728
g69
I5
ssg70
g3722
sg63
(lp3729
g3188
(S's\x0f\x00\x00\x00Selamat datang!'
tRp3730
asbasbasbag56
(g72
g58
NtRp3731
(dp3732
g61
(dp3733
sg70
g2605
sg63
(lp3734
g56
(g77
g58
NtRp3735
(dp3736
g61
(dp3737
g81
g82
ssg70
g3731
sg63
(lp3738
g1893
asbag56
(g77
g58
NtRp3739
(dp3740
g61
(dp3741
g88
g89
ssg70
g3731
sg63
(lp3742
S':'
asbag56
(g77
g58
NtRp3743
(dp3744
g61
(dp3745
sg70
g3731
sg63
(lp3746
g56
(g57
g58
NtRp3747
(dp3748
g61
(dp3749
g69
I5
ssg70
g3743
sg63
(lp3750
g1906
asbasbasbag56
(g72
g58
NtRp3751
(dp3752
g61
(dp3753
sg70
g2605
sg63
(lp3754
g56
(g77
g58
NtRp3755
(dp3756
g61
(dp3757
g81
g82
ssg70
g3751
sg63
(lp3758
S'view'
p3759
asbag56
(g77
g58
NtRp3760
(dp3761
g61
(dp3762
g88
g89
ssg70
g3751
sg63
(lp3763
S':'
asbag56
(g77
g58
NtRp3764
(dp3765
g61
(dp3766
sg70
g3751
sg63
(lp3767
g56
(g57
g58
NtRp3768
(dp3769
g61
(dp3770
g69
I5
ssg70
g3764
sg63
(lp3771
S'default/index.html'
p3772
asbasbasbasbasbsS'locals'
p3773
(dp3774
S'Service'
p3775
S"<class 'gluon.tools.Service'>"
p3776
sS'OBJECT'
p3777
S"<class 'gluon.html.OBJECT'>"
p3778
sS'_file'
p3779
S"'/simpel_mail_sistem/static/js/superfish.js'"
p3780
sS'SQLDB'
p3781
S"<class 'gluon.dal.DAL'>"
p3782
sg2587
S"<Storage {'_Session__hash': '\\xc8[\\xd5\\xc1#\\xd8e\\x10\\xe3\\x06\\x0ba\\xddT\\x92m'}>"
p3783
sS'LINK'
p3784
S"<class 'gluon.html.LINK'>"
p3785
sS'BR'
p3786
S"<class 'gluon.html.BR'>"
p3787
sS'local_import'
p3788
S'<function <lambda>>'
p3789
sS'OPTGROUP'
p3790
S"<class 'gluon.html.OPTGROUP'>"
p3791
sS'PRE'
p3792
S"<class 'gluon.html.PRE'>"
p3793
sS'IS_INT_IN_RANGE'
p3794
S"<class 'gluon.validators.IS_INT_IN_RANGE'>"
p3795
sS'left_sidebar_enabled'
p3796
g99
sS'IS_LOWER'
p3797
S"<class 'gluon.validators.IS_LOWER'>"
p3798
sS'IS_STRONG'
p3799
S"<class 'gluon.validators.IS_STRONG'>"
p3800
sS'cache'
p3801
S'<gluon.cache.Cache object>'
p3802
sS'IS_IN_DB'
p3803
S"<class 'gluon.validators.IS_IN_DB'>"
p3804
sS'TAG'
p3805
S'<gluon.html.__TAG__ object>'
p3806
sS'_k'
p3807
S'5'
sS'SQLField'
p3808
S"<class 'gluon.dal.Field'>"
p3809
sS'mail'
p3810
S'<gluon.tools.Mail object>'
p3811
sS'BODY'
p3812
S"<class 'gluon.html.BODY'>"
p3813
sS'IS_DATE_IN_RANGE'
p3814
S"<class 'gluon.validators.IS_DATE_IN_RANGE'>"
p3815
sS'TH'
p3816
S"<class 'gluon.html.TH'>"
p3817
sS'URL'
p3818
S'<function URL>'
p3819
sS'__file__'
p3820
S"'/home/umum/web2py/applications/simpel_mail_sistem/views/default/index.html'"
p3821
sS'db'
p3822
S"<DAL {'auth_event': <Table {'origin': <gluon.dal... '_id': <gluon.dal.Field object at 0x2fc6050>}>}>"
p3823
sS'auth'
p3824
S'<gluon.tools.Auth object>'
p3825
sS'P'
S"<class 'gluon.html.P'>"
p3826
sS'TFOOT'
p3827
S"<class 'gluon.html.TFOOT'>"
p3828
sS'XHTML'
p3829
S"<class 'gluon.html.XHTML'>"
p3830
sS'ON'
p3831
g1547
sS'OL'
p3832
S"<class 'gluon.html.OL'>"
p3833
sS'TEXTAREA'
p3834
S"<class 'gluon.html.TEXTAREA'>"
p3835
sS'MENU'
p3836
S"<class 'gluon.html.MENU'>"
p3837
sS'_file0'
p3838
S"'/simpel_mail_sistem/static/js/superfish.js'"
p3839
sS'LOAD'
p3840
S'<gluon.compileapp.LoadFactory object>'
p3841
sS'CODE'
p3842
S"<class 'gluon.html.CODE'>"
p3843
sS'HTTP'
p3844
S"<class 'gluon.http.HTTP'>"
p3845
sS'HR'
p3846
S"<class 'gluon.html.HR'>"
p3847
sS'IS_DATETIME'
p3848
S"<class 'gluon.validators.IS_DATETIME'>"
p3849
sS'HEAD'
p3850
S"<class 'gluon.html.HEAD'>"
p3851
sS'LABEL'
p3852
S"<class 'gluon.html.LABEL'>"
p3853
sS'CLEANUP'
p3854
S"<class 'gluon.validators.CLEANUP'>"
p3855
sS'plugins'
p3856
S'<gluon.tools.PluginManager object>'
p3857
sS'SELECT'
p3858
S"<class 'gluon.html.SELECT'>"
p3859
sS'CENTER'
p3860
S"<class 'gluon.html.CENTER'>"
p3861
sS'left_sidebar_style'
p3862
S'\'style="display: none;"\''
p3863
sS'Crud'
p3864
S"<class 'gluon.tools.Crud'>"
p3865
sS'Auth'
p3866
S"<class 'gluon.tools.Auth'>"
p3867
sS'__builtins__'
p3868
S"{'ArithmeticError': <type 'exceptions.ArithmeticError'>, 'AssertionError': <type 'exceptions.AssertionError'>, 'AttributeError': <type 'exceptions.AttributeError'>, 'BaseException': <type 'exceptions.BaseException'>, 'BufferError': <type 'exceptions.BufferError'>, 'BytesWarning': <type 'exceptions.BytesWarning'>, 'DeprecationWarning': <type 'exceptions.DeprecationWarning'>, 'EOFError': <type 'exceptions.EOFError'>, 'Ellipsis': Ellipsis, 'EnvironmentError': <type 'exceptions.EnvironmentError'>, ...}"
p3869
sS'IS_LIST_OF'
p3870
S"<class 'gluon.validators.IS_LIST_OF'>"
p3871
sS'SQLFORM'
p3872
S"<class 'gluon.sqlhtml.SQLFORM'>"
p3873
sS'_item'
p3874
S"'author'"
p3875
sS'EM'
p3876
S"<class 'gluon.html.EM'>"
p3877
sS'redirect'
p3878
S'<function redirect>'
p3879
sS'FIELDSET'
p3880
S"<class 'gluon.html.FIELDSET'>"
p3881
sS'IS_EQUAL_TO'
p3882
S"<class 'gluon.validators.IS_EQUAL_TO'>"
p3883
sS'embed64'
p3884
S'<function embed64>'
p3885
sS'INPUT'
p3886
S"<class 'gluon.html.INPUT'>"
p3887
sS'EMBED'
p3888
S"<class 'gluon.html.EMBED'>"
p3889
sS'FORM'
p3890
S"<class 'gluon.html.FORM'>"
p3891
sS'width_content'
p3892
S"'100%'"
p3893
sS'H2'
p3894
S"<class 'gluon.html.H2'>"
p3895
sS'H3'
p3896
S"<class 'gluon.html.H3'>"
p3897
sS'BUTTON'
p3898
S"<class 'gluon.html.BUTTON'>"
p3899
sS'H1'
p3900
S"<class 'gluon.html.H1'>"
p3901
sS'H6'
p3902
S"<class 'gluon.html.H6'>"
p3903
sS'H4'
p3904
S"<class 'gluon.html.H4'>"
p3905
sS'H5'
p3906
S"<class 'gluon.html.H5'>"
p3907
sS'UL'
p3908
S"<class 'gluon.html.UL'>"
p3909
sS'IS_UPPER'
p3910
S"<class 'gluon.validators.IS_UPPER'>"
p3911
sS'xmlescape'
p3912
S'<function xmlescape>'
p3913
sS'IS_TIME'
p3914
S"<class 'gluon.validators.IS_TIME'>"
p3915
sS'OPTION'
p3916
S"<class 'gluon.html.OPTION'>"
p3917
sS'TITLE'
p3918
S"<class 'gluon.html.TITLE'>"
p3919
sS'CRYPT'
p3920
S"<class 'gluon.validators.CRYPT'>"
p3921
sS'IS_EMPTY_OR'
p3922
S"<class 'gluon.validators.IS_EMPTY_OR'>"
p3923
sS'MARKMIN'
p3924
S"<class 'gluon.html.MARKMIN'>"
p3925
sS'service'
p3926
S'<gluon.tools.Service object>'
p3927
sS'SCRIPT'
p3928
S"<class 'gluon.html.SCRIPT'>"
p3929
sS'TABLE'
p3930
S"<class 'gluon.html.TABLE'>"
p3931
sS'IS_IPV4'
p3932
S"<class 'gluon.validators.IS_IPV4'>"
p3933
sS'IS_LENGTH'
p3934
S"<class 'gluon.validators.IS_LENGTH'>"
p3935
sS'XML'
p3936
S"<class 'gluon.html.XML'>"
p3937
sS'B'
S"<class 'gluon.html.B'>"
p3938
sS'IMG'
p3939
S"<class 'gluon.html.IMG'>"
p3940
sS'SQLTABLE'
p3941
S"<class 'gluon.sqlhtml.SQLTABLE'>"
p3942
sS'IS_MATCH'
p3943
S"<class 'gluon.validators.IS_MATCH'>"
p3944
sS'IS_ALPHANUMERIC'
p3945
S"<class 'gluon.validators.IS_ALPHANUMERIC'>"
p3946
sS'SPAN'
p3947
S"<class 'gluon.html.SPAN'>"
p3948
sS'IS_SLUG'
p3949
S"<class 'gluon.validators.IS_SLUG'>"
p3950
sS'BEAUTIFY'
p3951
S"<class 'gluon.html.BEAUTIFY'>"
p3952
sS'META'
p3953
S"<class 'gluon.html.META'>"
p3954
sS'IS_DATE'
p3955
S"<class 'gluon.validators.IS_DATE'>"
p3956
sS'IS_EMAIL'
p3957
S"<class 'gluon.validators.IS_EMAIL'>"
p3958
sS'IS_NOT_EMPTY'
p3959
S"<class 'gluon.validators.IS_NOT_EMPTY'>"
p3960
sg55
S"<Storage {'body': <cStringIO.StringO object at 0..._vars': <Storage {}>, 'post_vars': <Storage {}>}>"
p3961
sS'TBODY'
p3962
S"<class 'gluon.html.TBODY'>"
p3963
sS'Field'
p3964
S"<class 'gluon.dal.Field'>"
p3965
sS'Mail'
p3966
S"<class 'gluon.tools.Mail'>"
p3967
sS'DIV'
p3968
S"<class 'gluon.html.DIV'>"
p3969
sS'LEGEND'
p3970
S"<class 'gluon.html.LEGEND'>"
p3971
sS'DAL'
p3972
S"<class 'gluon.dal.DAL'>"
p3973
sS'TT'
p3974
S"<class 'gluon.html.TT'>"
p3975
sS'TR'
p3976
S"<class 'gluon.html.TR'>"
p3977
sS'LI'
p3978
S"<class 'gluon.html.LI'>"
p3979
sS'right_sidebar_enabled'
p3980
g99
sS'IFRAME'
p3981
S"<class 'gluon.html.IFRAME'>"
p3982
sS'TD'
p3983
S"<class 'gluon.html.TD'>"
p3984
sS'PluginManager'
p3985
S"<class 'gluon.tools.PluginManager'>"
p3986
sS'IS_URL'
p3987
S"<class 'gluon.validators.IS_URL'>"
p3988
sS'A'
S"<class 'gluon.html.A'>"
p3989
sS'STYLE'
p3990
S"<class 'gluon.html.STYLE'>"
p3991
sS'IS_DATETIME_IN_RANGE'
p3992
S"<class 'gluon.validators.IS_DATETIME_IN_RANGE'>"
p3993
sS'HTML'
p3994
S"<class 'gluon.html.HTML'>"
p3995
sS'IS_IMAGE'
p3996
S"<class 'gluon.validators.IS_IMAGE'>"
p3997
sS'I'
S"<class 'gluon.html.I'>"
p3998
sS'crud'
p3999
S'<gluon.tools.Crud object>'
p4000
sS'right_sidebar_style'
p4001
S'\'style="display: none;"\''
p4002
sS'IS_NOT_IN_DB'
p4003
S"<class 'gluon.validators.IS_NOT_IN_DB'>"
p4004
sg2600
S"<Storage {'status': 200, 'body': <cStringIO.Stri...js/superfish.js'], 'view': 'default/index.html'}>"
p4005
sS'THEAD'
p4006
S"<class 'gluon.html.THEAD'>"
p4007
sS'IS_NULL_OR'
p4008
S"<class 'gluon.validators.IS_EMPTY_OR'>"
p4009
sS'prettydate'
p4010
S'<function prettydate>'
p4011
sS'IS_FLOAT_IN_RANGE'
p4012
S"<class 'gluon.validators.IS_FLOAT_IN_RANGE'>"
p4013
sS'IS_EXPR'
p4014
S"<class 'gluon.validators.IS_EXPR'>"
p4015
sS'T'
S'<gluon.languages.translator object>'
p4016
sS'IS_IN_SET'
p4017
S"<class 'gluon.validators.IS_IN_SET'>"
p4018
sS'IS_UPLOAD_FILENAME'
p4019
S"<class 'gluon.validators.IS_UPLOAD_FILENAME'>"
p4020
sS'style_content'
p4021
S'\'style="width: 100%"\''
p4022
sS'IS_DECIMAL_IN_RANGE'
p4023
S"<class 'gluon.validators.IS_DECIMAL_IN_RANGE'>"
p4024
sssS'traceback'
p4025
S'Traceback (most recent call last):\n  File "/usr/lib/pymodules/python2.6/gluon/restricted.py", line 192, in restricted\n    exec ccode in environment\n  File "/home/umum/web2py/applications/simpel_mail_sistem/views/default/index.html", line 103, in <module>\nAttributeError: \'NoneType\' object has no attribute \'username\'\n'
p4026
s.